ARM GAS  C:\Users\Nakio\AppData\Local\Temp\ccYAGn7K.s 			page 1


   1              		.cpu cortex-m0
   2              		.fpu softvfp
   3              		.eabi_attribute 20, 1
   4              		.eabi_attribute 21, 1
   5              		.eabi_attribute 23, 3
   6              		.eabi_attribute 24, 1
   7              		.eabi_attribute 25, 1
   8              		.eabi_attribute 26, 1
   9              		.eabi_attribute 30, 6
  10              		.eabi_attribute 34, 0
  11              		.eabi_attribute 18, 4
  12              		.code	16
  13              		.file	"cyfitter_cfg.c"
  14              		.text
  15              	.Ltext0:
  16              		.cfi_sections	.debug_frame
  17              		.section	.text.CYMEMZERO,"ax",%progbits
  18              		.align	2
  19              		.code	16
  20              		.thumb_func
  21              		.type	CYMEMZERO, %function
  22              	CYMEMZERO:
  23              	.LFB2:
  24              		.file 1 "Generated_Source\\PSoC4\\cyfitter_cfg.c"
   1:Generated_Source\PSoC4/cyfitter_cfg.c **** /*******************************************************************************
   2:Generated_Source\PSoC4/cyfitter_cfg.c **** * File Name: cyfitter_cfg.c
   3:Generated_Source\PSoC4/cyfitter_cfg.c **** * 
   4:Generated_Source\PSoC4/cyfitter_cfg.c **** * PSoC Creator  4.0
   5:Generated_Source\PSoC4/cyfitter_cfg.c **** *
   6:Generated_Source\PSoC4/cyfitter_cfg.c **** * Description:
   7:Generated_Source\PSoC4/cyfitter_cfg.c **** * This file contains device initialization code.
   8:Generated_Source\PSoC4/cyfitter_cfg.c **** * Except for the user defined sections in CyClockStartupError(), this file should not be modified.
   9:Generated_Source\PSoC4/cyfitter_cfg.c **** * This file is automatically generated by PSoC Creator.
  10:Generated_Source\PSoC4/cyfitter_cfg.c **** *
  11:Generated_Source\PSoC4/cyfitter_cfg.c **** ********************************************************************************
  12:Generated_Source\PSoC4/cyfitter_cfg.c **** * Copyright (c) 2007-2016 Cypress Semiconductor.  All rights reserved.
  13:Generated_Source\PSoC4/cyfitter_cfg.c **** * You may use this file only in accordance with the license, terms, conditions, 
  14:Generated_Source\PSoC4/cyfitter_cfg.c **** * disclaimers, and limitations in the end user license agreement accompanying 
  15:Generated_Source\PSoC4/cyfitter_cfg.c **** * the software package with which this file was provided.
  16:Generated_Source\PSoC4/cyfitter_cfg.c **** ********************************************************************************/
  17:Generated_Source\PSoC4/cyfitter_cfg.c **** 
  18:Generated_Source\PSoC4/cyfitter_cfg.c **** #include <string.h>
  19:Generated_Source\PSoC4/cyfitter_cfg.c **** #include "cytypes.h"
  20:Generated_Source\PSoC4/cyfitter_cfg.c **** #include "cydevice_trm.h"
  21:Generated_Source\PSoC4/cyfitter_cfg.c **** #include "cyfitter.h"
  22:Generated_Source\PSoC4/cyfitter_cfg.c **** #include "CyLib.h"
  23:Generated_Source\PSoC4/cyfitter_cfg.c **** #include "cyfitter_cfg.h"
  24:Generated_Source\PSoC4/cyfitter_cfg.c **** #include "cyapicallbacks.h"
  25:Generated_Source\PSoC4/cyfitter_cfg.c **** 
  26:Generated_Source\PSoC4/cyfitter_cfg.c **** 
  27:Generated_Source\PSoC4/cyfitter_cfg.c **** #if defined(__GNUC__) || defined(__ARMCC_VERSION)
  28:Generated_Source\PSoC4/cyfitter_cfg.c ****     #define CYPACKED 
  29:Generated_Source\PSoC4/cyfitter_cfg.c ****     #define CYPACKED_ATTR __attribute__ ((packed))
  30:Generated_Source\PSoC4/cyfitter_cfg.c ****     #define CYALIGNED __attribute__ ((aligned))
  31:Generated_Source\PSoC4/cyfitter_cfg.c ****     #define CY_CFG_UNUSED __attribute__ ((unused))
  32:Generated_Source\PSoC4/cyfitter_cfg.c ****     #ifndef CY_CFG_SECTION
  33:Generated_Source\PSoC4/cyfitter_cfg.c ****         #define CY_CFG_SECTION __attribute__ ((section(".psocinit")))
ARM GAS  C:\Users\Nakio\AppData\Local\Temp\ccYAGn7K.s 			page 2


  34:Generated_Source\PSoC4/cyfitter_cfg.c ****     #endif
  35:Generated_Source\PSoC4/cyfitter_cfg.c ****     
  36:Generated_Source\PSoC4/cyfitter_cfg.c ****     #if defined(__ARMCC_VERSION)
  37:Generated_Source\PSoC4/cyfitter_cfg.c ****         #define CY_CFG_MEMORY_BARRIER() __memory_changed()
  38:Generated_Source\PSoC4/cyfitter_cfg.c ****     #else
  39:Generated_Source\PSoC4/cyfitter_cfg.c ****         #define CY_CFG_MEMORY_BARRIER() __sync_synchronize()
  40:Generated_Source\PSoC4/cyfitter_cfg.c ****     #endif
  41:Generated_Source\PSoC4/cyfitter_cfg.c ****     
  42:Generated_Source\PSoC4/cyfitter_cfg.c **** #elif defined(__ICCARM__)
  43:Generated_Source\PSoC4/cyfitter_cfg.c ****     #include <intrinsics.h>
  44:Generated_Source\PSoC4/cyfitter_cfg.c **** 
  45:Generated_Source\PSoC4/cyfitter_cfg.c ****     #define CYPACKED __packed
  46:Generated_Source\PSoC4/cyfitter_cfg.c ****     #define CYPACKED_ATTR 
  47:Generated_Source\PSoC4/cyfitter_cfg.c ****     #define CYALIGNED _Pragma("data_alignment=4")
  48:Generated_Source\PSoC4/cyfitter_cfg.c ****     #define CY_CFG_UNUSED _Pragma("diag_suppress=Pe177")
  49:Generated_Source\PSoC4/cyfitter_cfg.c ****     #define CY_CFG_SECTION _Pragma("location=\".psocinit\"")
  50:Generated_Source\PSoC4/cyfitter_cfg.c ****     
  51:Generated_Source\PSoC4/cyfitter_cfg.c ****     #define CY_CFG_MEMORY_BARRIER() __DMB()
  52:Generated_Source\PSoC4/cyfitter_cfg.c ****     
  53:Generated_Source\PSoC4/cyfitter_cfg.c **** #else
  54:Generated_Source\PSoC4/cyfitter_cfg.c ****     #error Unsupported toolchain
  55:Generated_Source\PSoC4/cyfitter_cfg.c **** #endif
  56:Generated_Source\PSoC4/cyfitter_cfg.c **** 
  57:Generated_Source\PSoC4/cyfitter_cfg.c **** 
  58:Generated_Source\PSoC4/cyfitter_cfg.c **** CY_CFG_UNUSED
  59:Generated_Source\PSoC4/cyfitter_cfg.c **** static void CYMEMZERO(void *s, size_t n);
  60:Generated_Source\PSoC4/cyfitter_cfg.c **** CY_CFG_UNUSED
  61:Generated_Source\PSoC4/cyfitter_cfg.c **** static void CYMEMZERO(void *s, size_t n)
  62:Generated_Source\PSoC4/cyfitter_cfg.c **** {
  25              		.loc 1 62 0
  26              		.cfi_startproc
  27 0000 80B5     		push	{r7, lr}
  28              		.cfi_def_cfa_offset 8
  29              		.cfi_offset 7, -8
  30              		.cfi_offset 14, -4
  31 0002 82B0     		sub	sp, sp, #8
  32              		.cfi_def_cfa_offset 16
  33 0004 00AF     		add	r7, sp, #0
  34              		.cfi_def_cfa_register 7
  35 0006 7860     		str	r0, [r7, #4]
  36 0008 3960     		str	r1, [r7]
  63:Generated_Source\PSoC4/cyfitter_cfg.c **** 	(void)memset(s, 0, n);
  37              		.loc 1 63 0
  38 000a 7A68     		ldr	r2, [r7, #4]
  39 000c 3B68     		ldr	r3, [r7]
  40 000e 101C     		mov	r0, r2
  41 0010 0021     		mov	r1, #0
  42 0012 1A1C     		mov	r2, r3
  43 0014 FFF7FEFF 		bl	memset
  64:Generated_Source\PSoC4/cyfitter_cfg.c **** }
  44              		.loc 1 64 0
  45 0018 BD46     		mov	sp, r7
  46 001a 02B0     		add	sp, sp, #8
  47              		@ sp needed
  48 001c 80BD     		pop	{r7, pc}
  49              		.cfi_endproc
  50              	.LFE2:
ARM GAS  C:\Users\Nakio\AppData\Local\Temp\ccYAGn7K.s 			page 3


  51              		.size	CYMEMZERO, .-CYMEMZERO
  52 001e C046     		.section	.text.CYCONFIGCPY,"ax",%progbits
  53              		.align	2
  54              		.code	16
  55              		.thumb_func
  56              		.type	CYCONFIGCPY, %function
  57              	CYCONFIGCPY:
  58              	.LFB3:
  65:Generated_Source\PSoC4/cyfitter_cfg.c **** CY_CFG_UNUSED
  66:Generated_Source\PSoC4/cyfitter_cfg.c **** static void CYCONFIGCPY(void *dest, const void *src, size_t n);
  67:Generated_Source\PSoC4/cyfitter_cfg.c **** CY_CFG_UNUSED
  68:Generated_Source\PSoC4/cyfitter_cfg.c **** static void CYCONFIGCPY(void *dest, const void *src, size_t n)
  69:Generated_Source\PSoC4/cyfitter_cfg.c **** {
  59              		.loc 1 69 0
  60              		.cfi_startproc
  61 0000 80B5     		push	{r7, lr}
  62              		.cfi_def_cfa_offset 8
  63              		.cfi_offset 7, -8
  64              		.cfi_offset 14, -4
  65 0002 84B0     		sub	sp, sp, #16
  66              		.cfi_def_cfa_offset 24
  67 0004 00AF     		add	r7, sp, #0
  68              		.cfi_def_cfa_register 7
  69 0006 F860     		str	r0, [r7, #12]
  70 0008 B960     		str	r1, [r7, #8]
  71 000a 7A60     		str	r2, [r7, #4]
  70:Generated_Source\PSoC4/cyfitter_cfg.c **** 	(void)memcpy(dest, src, n);
  72              		.loc 1 70 0
  73 000c F968     		ldr	r1, [r7, #12]
  74 000e BA68     		ldr	r2, [r7, #8]
  75 0010 7B68     		ldr	r3, [r7, #4]
  76 0012 081C     		mov	r0, r1
  77 0014 111C     		mov	r1, r2
  78 0016 1A1C     		mov	r2, r3
  79 0018 FFF7FEFF 		bl	memcpy
  71:Generated_Source\PSoC4/cyfitter_cfg.c **** }
  80              		.loc 1 71 0
  81 001c BD46     		mov	sp, r7
  82 001e 04B0     		add	sp, sp, #16
  83              		@ sp needed
  84 0020 80BD     		pop	{r7, pc}
  85              		.cfi_endproc
  86              	.LFE3:
  87              		.size	CYCONFIGCPY, .-CYCONFIGCPY
  88 0022 C046     		.section	.text.CYCONFIGCPYCODE,"ax",%progbits
  89              		.align	2
  90              		.code	16
  91              		.thumb_func
  92              		.type	CYCONFIGCPYCODE, %function
  93              	CYCONFIGCPYCODE:
  94              	.LFB4:
  72:Generated_Source\PSoC4/cyfitter_cfg.c **** CY_CFG_UNUSED
  73:Generated_Source\PSoC4/cyfitter_cfg.c **** static void CYCONFIGCPYCODE(void *dest, const void *src, size_t n);
  74:Generated_Source\PSoC4/cyfitter_cfg.c **** CY_CFG_UNUSED
  75:Generated_Source\PSoC4/cyfitter_cfg.c **** static void CYCONFIGCPYCODE(void *dest, const void *src, size_t n)
  76:Generated_Source\PSoC4/cyfitter_cfg.c **** {
  95              		.loc 1 76 0
ARM GAS  C:\Users\Nakio\AppData\Local\Temp\ccYAGn7K.s 			page 4


  96              		.cfi_startproc
  97 0000 80B5     		push	{r7, lr}
  98              		.cfi_def_cfa_offset 8
  99              		.cfi_offset 7, -8
 100              		.cfi_offset 14, -4
 101 0002 84B0     		sub	sp, sp, #16
 102              		.cfi_def_cfa_offset 24
 103 0004 00AF     		add	r7, sp, #0
 104              		.cfi_def_cfa_register 7
 105 0006 F860     		str	r0, [r7, #12]
 106 0008 B960     		str	r1, [r7, #8]
 107 000a 7A60     		str	r2, [r7, #4]
  77:Generated_Source\PSoC4/cyfitter_cfg.c **** 	(void)memcpy(dest, src, n);
 108              		.loc 1 77 0
 109 000c F968     		ldr	r1, [r7, #12]
 110 000e BA68     		ldr	r2, [r7, #8]
 111 0010 7B68     		ldr	r3, [r7, #4]
 112 0012 081C     		mov	r0, r1
 113 0014 111C     		mov	r1, r2
 114 0016 1A1C     		mov	r2, r3
 115 0018 FFF7FEFF 		bl	memcpy
  78:Generated_Source\PSoC4/cyfitter_cfg.c **** }
 116              		.loc 1 78 0
 117 001c BD46     		mov	sp, r7
 118 001e 04B0     		add	sp, sp, #16
 119              		@ sp needed
 120 0020 80BD     		pop	{r7, pc}
 121              		.cfi_endproc
 122              	.LFE4:
 123              		.size	CYCONFIGCPYCODE, .-CYCONFIGCPYCODE
 124 0022 C046     		.section	.text.cfg_write_bytes32,"ax",%progbits
 125              		.align	2
 126              		.code	16
 127              		.thumb_func
 128              		.type	cfg_write_bytes32, %function
 129              	cfg_write_bytes32:
 130              	.LFB5:
  79:Generated_Source\PSoC4/cyfitter_cfg.c **** 
  80:Generated_Source\PSoC4/cyfitter_cfg.c **** 
  81:Generated_Source\PSoC4/cyfitter_cfg.c **** 
  82:Generated_Source\PSoC4/cyfitter_cfg.c **** 
  83:Generated_Source\PSoC4/cyfitter_cfg.c **** /* Clock startup error codes                                                   */
  84:Generated_Source\PSoC4/cyfitter_cfg.c **** #define CYCLOCKSTART_NO_ERROR    0u
  85:Generated_Source\PSoC4/cyfitter_cfg.c **** #define CYCLOCKSTART_XTAL_ERROR  1u
  86:Generated_Source\PSoC4/cyfitter_cfg.c **** #define CYCLOCKSTART_32KHZ_ERROR 2u
  87:Generated_Source\PSoC4/cyfitter_cfg.c **** #define CYCLOCKSTART_PLL_ERROR   3u
  88:Generated_Source\PSoC4/cyfitter_cfg.c **** 
  89:Generated_Source\PSoC4/cyfitter_cfg.c **** 
  90:Generated_Source\PSoC4/cyfitter_cfg.c **** #ifdef CY_NEED_CYCLOCKSTARTUPERROR
  91:Generated_Source\PSoC4/cyfitter_cfg.c **** /*******************************************************************************
  92:Generated_Source\PSoC4/cyfitter_cfg.c **** * Function Name: CyClockStartupError
  93:Generated_Source\PSoC4/cyfitter_cfg.c **** ********************************************************************************
  94:Generated_Source\PSoC4/cyfitter_cfg.c **** * Summary:
  95:Generated_Source\PSoC4/cyfitter_cfg.c **** *  If an error is encountered during clock configuration (crystal startup error,
  96:Generated_Source\PSoC4/cyfitter_cfg.c **** *  PLL lock error, etc.), the system will end up here.  Unless reimplemented by
  97:Generated_Source\PSoC4/cyfitter_cfg.c **** *  the customer, this function will stop in an infinite loop.
  98:Generated_Source\PSoC4/cyfitter_cfg.c **** *
ARM GAS  C:\Users\Nakio\AppData\Local\Temp\ccYAGn7K.s 			page 5


  99:Generated_Source\PSoC4/cyfitter_cfg.c **** * Parameters:
 100:Generated_Source\PSoC4/cyfitter_cfg.c **** *   void
 101:Generated_Source\PSoC4/cyfitter_cfg.c **** *
 102:Generated_Source\PSoC4/cyfitter_cfg.c **** * Return:
 103:Generated_Source\PSoC4/cyfitter_cfg.c **** *   void
 104:Generated_Source\PSoC4/cyfitter_cfg.c **** *
 105:Generated_Source\PSoC4/cyfitter_cfg.c **** *******************************************************************************/
 106:Generated_Source\PSoC4/cyfitter_cfg.c **** CY_CFG_UNUSED
 107:Generated_Source\PSoC4/cyfitter_cfg.c **** static void CyClockStartupError(uint8 errorCode);
 108:Generated_Source\PSoC4/cyfitter_cfg.c **** CY_CFG_UNUSED
 109:Generated_Source\PSoC4/cyfitter_cfg.c **** static void CyClockStartupError(uint8 errorCode)
 110:Generated_Source\PSoC4/cyfitter_cfg.c **** {
 111:Generated_Source\PSoC4/cyfitter_cfg.c ****     /* To remove the compiler warning if errorCode not used.                */
 112:Generated_Source\PSoC4/cyfitter_cfg.c ****     errorCode = errorCode;
 113:Generated_Source\PSoC4/cyfitter_cfg.c **** 
 114:Generated_Source\PSoC4/cyfitter_cfg.c ****     /* If we have a clock startup error (bad MHz crystal, PLL lock, etc.),  */
 115:Generated_Source\PSoC4/cyfitter_cfg.c ****     /* we will end up here to allow the customer to implement something to  */
 116:Generated_Source\PSoC4/cyfitter_cfg.c ****     /* deal with the clock condition.                                       */
 117:Generated_Source\PSoC4/cyfitter_cfg.c **** 
 118:Generated_Source\PSoC4/cyfitter_cfg.c **** #ifdef CY_CFG_CLOCK_STARTUP_ERROR_CALLBACK
 119:Generated_Source\PSoC4/cyfitter_cfg.c **** 	CY_CFG_Clock_Startup_ErrorCallback();
 120:Generated_Source\PSoC4/cyfitter_cfg.c **** #else
 121:Generated_Source\PSoC4/cyfitter_cfg.c **** 	/*  If not using CY_CFG_CLOCK_STARTUP_ERROR_CALLBACK, place your clock startup code here. */
 122:Generated_Source\PSoC4/cyfitter_cfg.c ****     /* `#START CyClockStartupError` */
 123:Generated_Source\PSoC4/cyfitter_cfg.c **** 
 124:Generated_Source\PSoC4/cyfitter_cfg.c **** 
 125:Generated_Source\PSoC4/cyfitter_cfg.c **** 
 126:Generated_Source\PSoC4/cyfitter_cfg.c ****     /* `#END` */
 127:Generated_Source\PSoC4/cyfitter_cfg.c **** 
 128:Generated_Source\PSoC4/cyfitter_cfg.c ****     /* If nothing else, stop here since the clocks have not started         */
 129:Generated_Source\PSoC4/cyfitter_cfg.c ****     /* correctly.                                                           */
 130:Generated_Source\PSoC4/cyfitter_cfg.c ****     while(1) {}
 131:Generated_Source\PSoC4/cyfitter_cfg.c **** #endif /* CY_CFG_CLOCK_STARTUP_ERROR_CALLBACK */ 
 132:Generated_Source\PSoC4/cyfitter_cfg.c **** }
 133:Generated_Source\PSoC4/cyfitter_cfg.c **** #endif
 134:Generated_Source\PSoC4/cyfitter_cfg.c **** 
 135:Generated_Source\PSoC4/cyfitter_cfg.c **** #define CY_CFG_BASE_ADDR_COUNT 6u
 136:Generated_Source\PSoC4/cyfitter_cfg.c **** CYPACKED typedef struct
 137:Generated_Source\PSoC4/cyfitter_cfg.c **** {
 138:Generated_Source\PSoC4/cyfitter_cfg.c **** 	uint8 offset;
 139:Generated_Source\PSoC4/cyfitter_cfg.c **** 	uint8 value;
 140:Generated_Source\PSoC4/cyfitter_cfg.c **** } CYPACKED_ATTR cy_cfg_addrvalue_t;
 141:Generated_Source\PSoC4/cyfitter_cfg.c **** 
 142:Generated_Source\PSoC4/cyfitter_cfg.c **** 
 143:Generated_Source\PSoC4/cyfitter_cfg.c **** 
 144:Generated_Source\PSoC4/cyfitter_cfg.c **** /*******************************************************************************
 145:Generated_Source\PSoC4/cyfitter_cfg.c **** * Function Name: cfg_write_bytes32
 146:Generated_Source\PSoC4/cyfitter_cfg.c **** ********************************************************************************
 147:Generated_Source\PSoC4/cyfitter_cfg.c **** * Summary:
 148:Generated_Source\PSoC4/cyfitter_cfg.c **** *  This function is used for setting up the chip configuration areas that
 149:Generated_Source\PSoC4/cyfitter_cfg.c **** *  contain relatively sparse data.
 150:Generated_Source\PSoC4/cyfitter_cfg.c **** *
 151:Generated_Source\PSoC4/cyfitter_cfg.c **** * Parameters:
 152:Generated_Source\PSoC4/cyfitter_cfg.c **** *   void
 153:Generated_Source\PSoC4/cyfitter_cfg.c **** *
 154:Generated_Source\PSoC4/cyfitter_cfg.c **** * Return:
 155:Generated_Source\PSoC4/cyfitter_cfg.c **** *   void
ARM GAS  C:\Users\Nakio\AppData\Local\Temp\ccYAGn7K.s 			page 6


 156:Generated_Source\PSoC4/cyfitter_cfg.c **** *
 157:Generated_Source\PSoC4/cyfitter_cfg.c **** *******************************************************************************/
 158:Generated_Source\PSoC4/cyfitter_cfg.c **** static void cfg_write_bytes32(const uint32 addr_table[], const cy_cfg_addrvalue_t data_table[]);
 159:Generated_Source\PSoC4/cyfitter_cfg.c **** static void cfg_write_bytes32(const uint32 addr_table[], const cy_cfg_addrvalue_t data_table[])
 160:Generated_Source\PSoC4/cyfitter_cfg.c **** {
 131              		.loc 1 160 0
 132              		.cfi_startproc
 133 0000 80B5     		push	{r7, lr}
 134              		.cfi_def_cfa_offset 8
 135              		.cfi_offset 7, -8
 136              		.cfi_offset 14, -4
 137 0002 86B0     		sub	sp, sp, #24
 138              		.cfi_def_cfa_offset 32
 139 0004 00AF     		add	r7, sp, #0
 140              		.cfi_def_cfa_register 7
 141 0006 7860     		str	r0, [r7, #4]
 142 0008 3960     		str	r1, [r7]
 161:Generated_Source\PSoC4/cyfitter_cfg.c **** 	/* For 32-bit little-endian architectures */
 162:Generated_Source\PSoC4/cyfitter_cfg.c **** 	uint32 i, j = 0u;
 143              		.loc 1 162 0
 144 000a 0023     		mov	r3, #0
 145 000c 3B61     		str	r3, [r7, #16]
 163:Generated_Source\PSoC4/cyfitter_cfg.c **** 	for (i = 0u; i < CY_CFG_BASE_ADDR_COUNT; i++)
 146              		.loc 1 163 0
 147 000e 0023     		mov	r3, #0
 148 0010 7B61     		str	r3, [r7, #20]
 149 0012 2FE0     		b	.L5
 150              	.L8:
 151              	.LBB2:
 164:Generated_Source\PSoC4/cyfitter_cfg.c **** 	{
 165:Generated_Source\PSoC4/cyfitter_cfg.c **** 		uint32 baseAddr = addr_table[i];
 152              		.loc 1 165 0
 153 0014 7B69     		ldr	r3, [r7, #20]
 154 0016 9B00     		lsl	r3, r3, #2
 155 0018 7A68     		ldr	r2, [r7, #4]
 156 001a D318     		add	r3, r2, r3
 157 001c 1B68     		ldr	r3, [r3]
 158 001e BB60     		str	r3, [r7, #8]
 166:Generated_Source\PSoC4/cyfitter_cfg.c **** 		uint8 count = (uint8)baseAddr;
 159              		.loc 1 166 0
 160 0020 0F23     		mov	r3, #15
 161 0022 FB18     		add	r3, r7, r3
 162 0024 BA68     		ldr	r2, [r7, #8]
 163 0026 1A70     		strb	r2, [r3]
 167:Generated_Source\PSoC4/cyfitter_cfg.c **** 		baseAddr &= 0xFFFFFF00u;
 164              		.loc 1 167 0
 165 0028 BB68     		ldr	r3, [r7, #8]
 166 002a FF22     		mov	r2, #255
 167 002c 9343     		bic	r3, r2
 168 002e BB60     		str	r3, [r7, #8]
 168:Generated_Source\PSoC4/cyfitter_cfg.c **** 		while (count != 0u)
 169              		.loc 1 168 0
 170 0030 18E0     		b	.L6
 171              	.L7:
 169:Generated_Source\PSoC4/cyfitter_cfg.c **** 		{
 170:Generated_Source\PSoC4/cyfitter_cfg.c **** 			CY_SET_XTND_REG8((void CYFAR *)(baseAddr + data_table[j].offset), data_table[j].value);
 172              		.loc 1 170 0
ARM GAS  C:\Users\Nakio\AppData\Local\Temp\ccYAGn7K.s 			page 7


 173 0032 3B69     		ldr	r3, [r7, #16]
 174 0034 5B00     		lsl	r3, r3, #1
 175 0036 3A68     		ldr	r2, [r7]
 176 0038 D318     		add	r3, r2, r3
 177 003a 1B78     		ldrb	r3, [r3]
 178 003c 1A1C     		mov	r2, r3
 179 003e BB68     		ldr	r3, [r7, #8]
 180 0040 D318     		add	r3, r2, r3
 181 0042 191C     		mov	r1, r3
 182 0044 3B69     		ldr	r3, [r7, #16]
 183 0046 5B00     		lsl	r3, r3, #1
 184 0048 3A68     		ldr	r2, [r7]
 185 004a D318     		add	r3, r2, r3
 186 004c 5B78     		ldrb	r3, [r3, #1]
 187 004e 0B70     		strb	r3, [r1]
 171:Generated_Source\PSoC4/cyfitter_cfg.c **** 			j++;
 188              		.loc 1 171 0
 189 0050 3B69     		ldr	r3, [r7, #16]
 190 0052 0133     		add	r3, r3, #1
 191 0054 3B61     		str	r3, [r7, #16]
 172:Generated_Source\PSoC4/cyfitter_cfg.c **** 			count--;
 192              		.loc 1 172 0
 193 0056 0F23     		mov	r3, #15
 194 0058 FB18     		add	r3, r7, r3
 195 005a 1A78     		ldrb	r2, [r3]
 196 005c 0F23     		mov	r3, #15
 197 005e FB18     		add	r3, r7, r3
 198 0060 013A     		sub	r2, r2, #1
 199 0062 1A70     		strb	r2, [r3]
 200              	.L6:
 168:Generated_Source\PSoC4/cyfitter_cfg.c **** 		{
 201              		.loc 1 168 0
 202 0064 0F23     		mov	r3, #15
 203 0066 FB18     		add	r3, r7, r3
 204 0068 1B78     		ldrb	r3, [r3]
 205 006a 002B     		cmp	r3, #0
 206 006c E1D1     		bne	.L7
 207              	.LBE2:
 163:Generated_Source\PSoC4/cyfitter_cfg.c **** 	{
 208              		.loc 1 163 0 discriminator 2
 209 006e 7B69     		ldr	r3, [r7, #20]
 210 0070 0133     		add	r3, r3, #1
 211 0072 7B61     		str	r3, [r7, #20]
 212              	.L5:
 163:Generated_Source\PSoC4/cyfitter_cfg.c **** 	{
 213              		.loc 1 163 0 is_stmt 0 discriminator 1
 214 0074 7B69     		ldr	r3, [r7, #20]
 215 0076 052B     		cmp	r3, #5
 216 0078 CCD9     		bls	.L8
 173:Generated_Source\PSoC4/cyfitter_cfg.c **** 		}
 174:Generated_Source\PSoC4/cyfitter_cfg.c **** 	}
 175:Generated_Source\PSoC4/cyfitter_cfg.c **** }
 217              		.loc 1 175 0 is_stmt 1
 218 007a BD46     		mov	sp, r7
 219 007c 06B0     		add	sp, sp, #24
 220              		@ sp needed
 221 007e 80BD     		pop	{r7, pc}
ARM GAS  C:\Users\Nakio\AppData\Local\Temp\ccYAGn7K.s 			page 8


 222              		.cfi_endproc
 223              	.LFE5:
 224              		.size	cfg_write_bytes32, .-cfg_write_bytes32
 225              		.section	.psocinit,"ax",%progbits
 226              		.align	2
 227              		.code	16
 228              		.thumb_func
 229              		.type	ClockSetup, %function
 230              	ClockSetup:
 231              	.LFB6:
 176:Generated_Source\PSoC4/cyfitter_cfg.c **** 
 177:Generated_Source\PSoC4/cyfitter_cfg.c **** 
 178:Generated_Source\PSoC4/cyfitter_cfg.c **** /*******************************************************************************
 179:Generated_Source\PSoC4/cyfitter_cfg.c **** * Function Name: ClockSetup
 180:Generated_Source\PSoC4/cyfitter_cfg.c **** ********************************************************************************
 181:Generated_Source\PSoC4/cyfitter_cfg.c **** *
 182:Generated_Source\PSoC4/cyfitter_cfg.c **** * Summary:
 183:Generated_Source\PSoC4/cyfitter_cfg.c **** *   Performs the initialization of all of the clocks in the device based on the
 184:Generated_Source\PSoC4/cyfitter_cfg.c **** *   settings in the Clock tab of the DWR.  This includes enabling the requested
 185:Generated_Source\PSoC4/cyfitter_cfg.c **** *   clocks and setting the necessary dividers to produce the desired frequency. 
 186:Generated_Source\PSoC4/cyfitter_cfg.c **** *
 187:Generated_Source\PSoC4/cyfitter_cfg.c **** * Parameters:
 188:Generated_Source\PSoC4/cyfitter_cfg.c **** *   void
 189:Generated_Source\PSoC4/cyfitter_cfg.c **** *
 190:Generated_Source\PSoC4/cyfitter_cfg.c **** * Return:
 191:Generated_Source\PSoC4/cyfitter_cfg.c **** *   void
 192:Generated_Source\PSoC4/cyfitter_cfg.c **** *
 193:Generated_Source\PSoC4/cyfitter_cfg.c **** *******************************************************************************/
 194:Generated_Source\PSoC4/cyfitter_cfg.c **** static void ClockSetup(void);
 195:Generated_Source\PSoC4/cyfitter_cfg.c **** CY_CFG_SECTION
 196:Generated_Source\PSoC4/cyfitter_cfg.c **** static void ClockSetup(void)
 197:Generated_Source\PSoC4/cyfitter_cfg.c **** {
 232              		.loc 1 197 0
 233              		.cfi_startproc
 234 0000 80B5     		push	{r7, lr}
 235              		.cfi_def_cfa_offset 8
 236              		.cfi_offset 7, -8
 237              		.cfi_offset 14, -4
 238 0002 00AF     		add	r7, sp, #0
 239              		.cfi_def_cfa_register 7
 198:Generated_Source\PSoC4/cyfitter_cfg.c **** 
 199:Generated_Source\PSoC4/cyfitter_cfg.c **** 	/* Set Flash Cycles based on max possible frequency in case a glitch occurs during ClockSetup(). *
 200:Generated_Source\PSoC4/cyfitter_cfg.c **** 	CY_SET_REG32((void CYXDATA *)(CYREG_CPUSS_FLASH_CTL), (0x0012u));
 240              		.loc 1 200 0
 241 0004 2F4B     		ldr	r3, .L10
 242 0006 1222     		mov	r2, #18
 243 0008 1A60     		str	r2, [r3]
 201:Generated_Source\PSoC4/cyfitter_cfg.c **** 
 202:Generated_Source\PSoC4/cyfitter_cfg.c **** 	/* Start the WCO */
 203:Generated_Source\PSoC4/cyfitter_cfg.c **** 	CySysClkWcoStart();
 244              		.loc 1 203 0
 245 000a FFF7FEFF 		bl	CySysClkWcoStart
 204:Generated_Source\PSoC4/cyfitter_cfg.c **** 	CyDelayCycles(12000000u); /* WCO may take up to 500ms to start */
 246              		.loc 1 204 0
 247 000e 2E4B     		ldr	r3, .L10+4
 248 0010 181C     		mov	r0, r3
 249 0012 FFF7FEFF 		bl	CyDelayCycles
ARM GAS  C:\Users\Nakio\AppData\Local\Temp\ccYAGn7K.s 			page 9


 205:Generated_Source\PSoC4/cyfitter_cfg.c **** 	(void)CySysClkWcoSetPowerMode(CY_SYS_CLK_WCO_LPM);    /* Switch to the low power mode */
 250              		.loc 1 205 0
 251 0016 0120     		mov	r0, #1
 252 0018 FFF7FEFF 		bl	CySysClkWcoSetPowerMode
 206:Generated_Source\PSoC4/cyfitter_cfg.c **** 
 207:Generated_Source\PSoC4/cyfitter_cfg.c **** 	/* Setup and trim IMO based on desired frequency. */
 208:Generated_Source\PSoC4/cyfitter_cfg.c **** 	CySysClkWriteImoFreq(12u);
 253              		.loc 1 208 0
 254 001c 0C20     		mov	r0, #12
 255 001e FFF7FEFF 		bl	CySysClkWriteImoFreq
 209:Generated_Source\PSoC4/cyfitter_cfg.c **** 	/* CYDEV_CLK_ILO_CONFIG Starting address: CYDEV_CLK_ILO_CONFIG */
 210:Generated_Source\PSoC4/cyfitter_cfg.c **** 	CY_SET_XTND_REG32((void CYFAR *)(CYREG_CLK_ILO_CONFIG), 0x80000006u);
 256              		.loc 1 210 0
 257 0022 2A4B     		ldr	r3, .L10+8
 258 0024 2A4A     		ldr	r2, .L10+12
 259 0026 1A60     		str	r2, [r3]
 211:Generated_Source\PSoC4/cyfitter_cfg.c **** 
 212:Generated_Source\PSoC4/cyfitter_cfg.c **** 	/* CYDEV_WDT_CONFIG Starting address: CYDEV_WDT_CONFIG */
 213:Generated_Source\PSoC4/cyfitter_cfg.c **** 	CY_SET_XTND_REG32((void CYFAR *)(CYREG_WDT_CONFIG), 0x40000000u);
 260              		.loc 1 213 0
 261 0028 2A4B     		ldr	r3, .L10+16
 262 002a 8022     		mov	r2, #128
 263 002c D205     		lsl	r2, r2, #23
 264 002e 1A60     		str	r2, [r3]
 214:Generated_Source\PSoC4/cyfitter_cfg.c **** 
 215:Generated_Source\PSoC4/cyfitter_cfg.c **** 
 216:Generated_Source\PSoC4/cyfitter_cfg.c **** 	/* Enable fast start mode for XO */
 217:Generated_Source\PSoC4/cyfitter_cfg.c **** 	CY_SET_REG32((void*)CYREG_BLE_BLERD_BB_XO, CY_GET_REG32((void*)CYREG_BLE_BLERD_BB_XO) | (uint32)0x
 265              		.loc 1 217 0
 266 0030 294B     		ldr	r3, .L10+20
 267 0032 294A     		ldr	r2, .L10+20
 268 0034 1268     		ldr	r2, [r2]
 269 0036 0221     		mov	r1, #2
 270 0038 0A43     		orr	r2, r1
 271 003a 1A60     		str	r2, [r3]
 218:Generated_Source\PSoC4/cyfitter_cfg.c **** 	CY_SET_XTND_REG32((void CYFAR *)(CYREG_BLE_BLERD_BB_XO_CAPTRIM), 0x00002D6Au);
 272              		.loc 1 218 0
 273 003c 274B     		ldr	r3, .L10+24
 274 003e 284A     		ldr	r2, .L10+28
 275 0040 1A60     		str	r2, [r3]
 219:Generated_Source\PSoC4/cyfitter_cfg.c **** 	/*Set XTAL(ECO) divider*/
 220:Generated_Source\PSoC4/cyfitter_cfg.c **** 	CY_SET_XTND_REG32((void CYFAR *)(CYREG_BLE_BLESS_XTAL_CLK_DIV_CONFIG), 0x00000000u);
 276              		.loc 1 220 0
 277 0042 284B     		ldr	r3, .L10+32
 278 0044 0022     		mov	r2, #0
 279 0046 1A60     		str	r2, [r3]
 221:Generated_Source\PSoC4/cyfitter_cfg.c **** 	/* Disable Crystal Stable Interrupt before enabling ECO */
 222:Generated_Source\PSoC4/cyfitter_cfg.c **** 	CY_SET_REG32((void*)CYREG_BLE_BLESS_LL_DSM_CTRL, CY_GET_REG32((void*)CYREG_BLE_BLESS_LL_DSM_CTRL) 
 280              		.loc 1 222 0
 281 0048 274B     		ldr	r3, .L10+36
 282 004a 274A     		ldr	r2, .L10+36
 283 004c 1268     		ldr	r2, [r2]
 284 004e 0821     		mov	r1, #8
 285 0050 8A43     		bic	r2, r1
 286 0052 1A60     		str	r2, [r3]
 223:Generated_Source\PSoC4/cyfitter_cfg.c **** 	/* Start the ECO and do not check status since it is not needed for HFCLK */
 224:Generated_Source\PSoC4/cyfitter_cfg.c **** 	(void)CySysClkEcoStart(2000u);
ARM GAS  C:\Users\Nakio\AppData\Local\Temp\ccYAGn7K.s 			page 10


 287              		.loc 1 224 0
 288 0054 FA23     		mov	r3, #250
 289 0056 DB00     		lsl	r3, r3, #3
 290 0058 181C     		mov	r0, r3
 291 005a FFF7FEFF 		bl	CySysClkEcoStart
 225:Generated_Source\PSoC4/cyfitter_cfg.c **** 	CyDelayUs(1500u); /* Wait to stabalize */
 292              		.loc 1 225 0
 293 005e 234B     		ldr	r3, .L10+40
 294 0060 181C     		mov	r0, r3
 295 0062 FFF7FEFF 		bl	CyDelayUs
 226:Generated_Source\PSoC4/cyfitter_cfg.c **** 
 227:Generated_Source\PSoC4/cyfitter_cfg.c **** 	/* Setup phase aligned clocks */
 228:Generated_Source\PSoC4/cyfitter_cfg.c **** 	CY_SET_REG32((void *)CYREG_PERI_DIV_16_CTL2, 0x00007700u);
 296              		.loc 1 228 0
 297 0066 224B     		ldr	r3, .L10+44
 298 0068 EE22     		mov	r2, #238
 299 006a D201     		lsl	r2, r2, #7
 300 006c 1A60     		str	r2, [r3]
 229:Generated_Source\PSoC4/cyfitter_cfg.c **** 	CY_SET_REG32((void *)CYREG_PERI_DIV_CMD, 0x8000FF42u);
 301              		.loc 1 229 0
 302 006e 214B     		ldr	r3, .L10+48
 303 0070 214A     		ldr	r2, .L10+52
 304 0072 1A60     		str	r2, [r3]
 230:Generated_Source\PSoC4/cyfitter_cfg.c **** 	CY_SET_REG32((void *)CYREG_PERI_DIV_16_CTL0, 0x0000FE00u);
 305              		.loc 1 230 0
 306 0074 214B     		ldr	r3, .L10+56
 307 0076 FE22     		mov	r2, #254
 308 0078 1202     		lsl	r2, r2, #8
 309 007a 1A60     		str	r2, [r3]
 231:Generated_Source\PSoC4/cyfitter_cfg.c **** 	CY_SET_REG32((void *)CYREG_PERI_DIV_CMD, 0x8000FF40u);
 310              		.loc 1 231 0
 311 007c 1D4B     		ldr	r3, .L10+48
 312 007e 204A     		ldr	r2, .L10+60
 313 0080 1A60     		str	r2, [r3]
 232:Generated_Source\PSoC4/cyfitter_cfg.c **** 	CY_SET_REG32((void *)CYREG_PERI_DIV_16_CTL1, 0x0000FE00u);
 314              		.loc 1 232 0
 315 0082 204B     		ldr	r3, .L10+64
 316 0084 FE22     		mov	r2, #254
 317 0086 1202     		lsl	r2, r2, #8
 318 0088 1A60     		str	r2, [r3]
 233:Generated_Source\PSoC4/cyfitter_cfg.c **** 	CY_SET_REG32((void *)CYREG_PERI_DIV_CMD, 0x8000FF41u);
 319              		.loc 1 233 0
 320 008a 1A4B     		ldr	r3, .L10+48
 321 008c 1E4A     		ldr	r2, .L10+68
 322 008e 1A60     		str	r2, [r3]
 234:Generated_Source\PSoC4/cyfitter_cfg.c **** 
 235:Generated_Source\PSoC4/cyfitter_cfg.c **** 	/* CYDEV_CLK_IMO_CONFIG Starting address: CYDEV_CLK_IMO_CONFIG */
 236:Generated_Source\PSoC4/cyfitter_cfg.c **** 	CY_SET_XTND_REG32((void CYFAR *)(CYREG_CLK_IMO_CONFIG), 0x80000000u);
 323              		.loc 1 236 0
 324 0090 1E4B     		ldr	r3, .L10+72
 325 0092 8022     		mov	r2, #128
 326 0094 1206     		lsl	r2, r2, #24
 327 0096 1A60     		str	r2, [r3]
 237:Generated_Source\PSoC4/cyfitter_cfg.c **** 
 238:Generated_Source\PSoC4/cyfitter_cfg.c **** 	/* CYDEV_CLK_SELECT Starting address: CYDEV_CLK_SELECT */
 239:Generated_Source\PSoC4/cyfitter_cfg.c **** 	CY_SET_XTND_REG32((void CYFAR *)(CYREG_CLK_SELECT), 0x00000000u);
 328              		.loc 1 239 0
ARM GAS  C:\Users\Nakio\AppData\Local\Temp\ccYAGn7K.s 			page 11


 329 0098 1D4B     		ldr	r3, .L10+76
 330 009a 0022     		mov	r2, #0
 331 009c 1A60     		str	r2, [r3]
 240:Generated_Source\PSoC4/cyfitter_cfg.c **** 
 241:Generated_Source\PSoC4/cyfitter_cfg.c **** 	/* CYDEV_PERI_PCLK_CTL11 Starting address: CYDEV_PERI_PCLK_CTL11 */
 242:Generated_Source\PSoC4/cyfitter_cfg.c **** 	CY_SET_XTND_REG32((void CYFAR *)(CYREG_PERI_PCLK_CTL11), 0x00000042u);
 332              		.loc 1 242 0
 333 009e 1D4B     		ldr	r3, .L10+80
 334 00a0 4222     		mov	r2, #66
 335 00a2 1A60     		str	r2, [r3]
 243:Generated_Source\PSoC4/cyfitter_cfg.c **** 
 244:Generated_Source\PSoC4/cyfitter_cfg.c **** 	/* CYDEV_PERI_PCLK_CTL5 Starting address: CYDEV_PERI_PCLK_CTL5 */
 245:Generated_Source\PSoC4/cyfitter_cfg.c **** 	CY_SET_XTND_REG32((void CYFAR *)(CYREG_PERI_PCLK_CTL5), 0x00000040u);
 336              		.loc 1 245 0
 337 00a4 1C4B     		ldr	r3, .L10+84
 338 00a6 4022     		mov	r2, #64
 339 00a8 1A60     		str	r2, [r3]
 246:Generated_Source\PSoC4/cyfitter_cfg.c **** 
 247:Generated_Source\PSoC4/cyfitter_cfg.c **** 	/* CYDEV_PERI_PCLK_CTL4 Starting address: CYDEV_PERI_PCLK_CTL4 */
 248:Generated_Source\PSoC4/cyfitter_cfg.c **** 	CY_SET_XTND_REG32((void CYFAR *)(CYREG_PERI_PCLK_CTL4), 0x00000041u);
 340              		.loc 1 248 0
 341 00aa 1C4B     		ldr	r3, .L10+88
 342 00ac 4122     		mov	r2, #65
 343 00ae 1A60     		str	r2, [r3]
 249:Generated_Source\PSoC4/cyfitter_cfg.c **** 
 250:Generated_Source\PSoC4/cyfitter_cfg.c **** 	CY_SET_XTND_REG32((void CYFAR *)(CYREG_WDT_CONFIG), 0x40000000u);
 344              		.loc 1 250 0
 345 00b0 084B     		ldr	r3, .L10+16
 346 00b2 8022     		mov	r2, #128
 347 00b4 D205     		lsl	r2, r2, #23
 348 00b6 1A60     		str	r2, [r3]
 251:Generated_Source\PSoC4/cyfitter_cfg.c **** 	/* Set Flash Cycles based on newly configured 12.00MHz HFCLK. */
 252:Generated_Source\PSoC4/cyfitter_cfg.c **** 	CY_SET_REG32((void CYXDATA *)(CYREG_CPUSS_FLASH_CTL), (0x0000u));
 349              		.loc 1 252 0
 350 00b8 024B     		ldr	r3, .L10
 351 00ba 0022     		mov	r2, #0
 352 00bc 1A60     		str	r2, [r3]
 253:Generated_Source\PSoC4/cyfitter_cfg.c **** }
 353              		.loc 1 253 0
 354 00be BD46     		mov	sp, r7
 355              		@ sp needed
 356 00c0 80BD     		pop	{r7, pc}
 357              	.L11:
 358 00c2 C046     		.align	2
 359              	.L10:
 360 00c4 30001040 		.word	1074790448
 361 00c8 001BB700 		.word	12000000
 362 00cc 04010B40 		.word	1074462980
 363 00d0 06000080 		.word	-2147483642
 364 00d4 0C020B40 		.word	1074463244
 365 00d8 78002E40 		.word	1076756600
 366 00dc 7C002E40 		.word	1076756604
 367 00e0 6A2D0000 		.word	11626
 368 00e4 64F02E40 		.word	1076818020
 369 00e8 6CF02E40 		.word	1076818028
 370 00ec DC050000 		.word	1500
 371 00f0 08030140 		.word	1073808136
ARM GAS  C:\Users\Nakio\AppData\Local\Temp\ccYAGn7K.s 			page 12


 372 00f4 00000140 		.word	1073807360
 373 00f8 42FF0080 		.word	-2147418302
 374 00fc 00030140 		.word	1073808128
 375 0100 40FF0080 		.word	-2147418304
 376 0104 04030140 		.word	1073808132
 377 0108 41FF0080 		.word	-2147418303
 378 010c 08010B40 		.word	1074462984
 379 0110 00010B40 		.word	1074462976
 380 0114 2C010140 		.word	1073807660
 381 0118 14010140 		.word	1073807636
 382 011c 10010140 		.word	1073807632
 383              		.cfi_endproc
 384              	.LFE6:
 385              		.size	ClockSetup, .-ClockSetup
 386              		.section	.text.AnalogSetDefault,"ax",%progbits
 387              		.align	2
 388              		.code	16
 389              		.thumb_func
 390              		.type	AnalogSetDefault, %function
 391              	AnalogSetDefault:
 392              	.LFB7:
 254:Generated_Source\PSoC4/cyfitter_cfg.c **** 
 255:Generated_Source\PSoC4/cyfitter_cfg.c **** 
 256:Generated_Source\PSoC4/cyfitter_cfg.c **** /* Analog API Functions */
 257:Generated_Source\PSoC4/cyfitter_cfg.c **** 
 258:Generated_Source\PSoC4/cyfitter_cfg.c **** 
 259:Generated_Source\PSoC4/cyfitter_cfg.c **** /*******************************************************************************
 260:Generated_Source\PSoC4/cyfitter_cfg.c **** * Function Name: AnalogSetDefault
 261:Generated_Source\PSoC4/cyfitter_cfg.c **** ********************************************************************************
 262:Generated_Source\PSoC4/cyfitter_cfg.c **** *
 263:Generated_Source\PSoC4/cyfitter_cfg.c **** * Summary:
 264:Generated_Source\PSoC4/cyfitter_cfg.c **** *  Sets up the analog portions of the chip to default values based on chip
 265:Generated_Source\PSoC4/cyfitter_cfg.c **** *  configuration options from the project.
 266:Generated_Source\PSoC4/cyfitter_cfg.c **** *
 267:Generated_Source\PSoC4/cyfitter_cfg.c **** * Parameters:
 268:Generated_Source\PSoC4/cyfitter_cfg.c **** *  void
 269:Generated_Source\PSoC4/cyfitter_cfg.c **** *
 270:Generated_Source\PSoC4/cyfitter_cfg.c **** * Return:
 271:Generated_Source\PSoC4/cyfitter_cfg.c **** *  void
 272:Generated_Source\PSoC4/cyfitter_cfg.c **** *
 273:Generated_Source\PSoC4/cyfitter_cfg.c **** *******************************************************************************/
 274:Generated_Source\PSoC4/cyfitter_cfg.c **** static void AnalogSetDefault(void);
 275:Generated_Source\PSoC4/cyfitter_cfg.c **** static void AnalogSetDefault(void)
 276:Generated_Source\PSoC4/cyfitter_cfg.c **** {
 393              		.loc 1 276 0
 394              		.cfi_startproc
 395 0000 80B5     		push	{r7, lr}
 396              		.cfi_def_cfa_offset 8
 397              		.cfi_offset 7, -8
 398              		.cfi_offset 14, -4
 399 0002 00AF     		add	r7, sp, #0
 400              		.cfi_def_cfa_register 7
 277:Generated_Source\PSoC4/cyfitter_cfg.c **** 	CY_SET_XTND_REG32((void CYFAR *)CYREG_CTBM0_DFT_CTRL, 0x00000003u);
 401              		.loc 1 277 0
 402 0004 064B     		ldr	r3, .L13
 403 0006 0322     		mov	r2, #3
 404 0008 1A60     		str	r2, [r3]
ARM GAS  C:\Users\Nakio\AppData\Local\Temp\ccYAGn7K.s 			page 13


 278:Generated_Source\PSoC4/cyfitter_cfg.c **** 	CY_SET_XTND_REG32((void CYFAR *)CYREG_CTBM1_DFT_CTRL, 0x00000003u);
 405              		.loc 1 278 0
 406 000a 064B     		ldr	r3, .L13+4
 407 000c 0322     		mov	r2, #3
 408 000e 1A60     		str	r2, [r3]
 279:Generated_Source\PSoC4/cyfitter_cfg.c **** 	CY_SET_XTND_REG32((void CYFAR *)CYREG_PASS_DSAB_DSAB_CTRL, 0x00000000u);
 409              		.loc 1 279 0
 410 0010 054B     		ldr	r3, .L13+8
 411 0012 0022     		mov	r2, #0
 412 0014 1A60     		str	r2, [r3]
 280:Generated_Source\PSoC4/cyfitter_cfg.c **** 	SetAnalogRoutingPumps(1);
 413              		.loc 1 280 0
 414 0016 0120     		mov	r0, #1
 415 0018 FFF7FEFF 		bl	SetAnalogRoutingPumps
 281:Generated_Source\PSoC4/cyfitter_cfg.c **** }
 416              		.loc 1 281 0
 417 001c BD46     		mov	sp, r7
 418              		@ sp needed
 419 001e 80BD     		pop	{r7, pc}
 420              	.L14:
 421              		.align	2
 422              	.L13:
 423 0020 30003040 		.word	1076887600
 424 0024 30003140 		.word	1076953136
 425 0028 000E3F40 		.word	1077874176
 426              		.cfi_endproc
 427              	.LFE7:
 428              		.size	AnalogSetDefault, .-AnalogSetDefault
 429              		.section	.text.SetAnalogRoutingPumps,"ax",%progbits
 430              		.align	2
 431              		.global	SetAnalogRoutingPumps
 432              		.code	16
 433              		.thumb_func
 434              		.type	SetAnalogRoutingPumps, %function
 435              	SetAnalogRoutingPumps:
 436              	.LFB8:
 282:Generated_Source\PSoC4/cyfitter_cfg.c **** 
 283:Generated_Source\PSoC4/cyfitter_cfg.c **** 
 284:Generated_Source\PSoC4/cyfitter_cfg.c **** /*******************************************************************************
 285:Generated_Source\PSoC4/cyfitter_cfg.c **** * Function Name: SetAnalogRoutingPumps
 286:Generated_Source\PSoC4/cyfitter_cfg.c **** ********************************************************************************
 287:Generated_Source\PSoC4/cyfitter_cfg.c **** *
 288:Generated_Source\PSoC4/cyfitter_cfg.c **** * Summary:
 289:Generated_Source\PSoC4/cyfitter_cfg.c **** * Enables or disables the analog pumps feeding analog routing switches.
 290:Generated_Source\PSoC4/cyfitter_cfg.c **** * Intended to be called at startup, based on the Vdda system configuration;
 291:Generated_Source\PSoC4/cyfitter_cfg.c **** * may be called during operation when the user informs us that the Vdda voltage crossed the pump th
 292:Generated_Source\PSoC4/cyfitter_cfg.c **** *
 293:Generated_Source\PSoC4/cyfitter_cfg.c **** * Parameters:
 294:Generated_Source\PSoC4/cyfitter_cfg.c **** *  enabled - 1 to enable the pumps, 0 to disable the pumps
 295:Generated_Source\PSoC4/cyfitter_cfg.c **** *
 296:Generated_Source\PSoC4/cyfitter_cfg.c **** * Return:
 297:Generated_Source\PSoC4/cyfitter_cfg.c **** *  void
 298:Generated_Source\PSoC4/cyfitter_cfg.c **** *
 299:Generated_Source\PSoC4/cyfitter_cfg.c **** *******************************************************************************/
 300:Generated_Source\PSoC4/cyfitter_cfg.c **** void SetAnalogRoutingPumps(uint8 enabled)
 301:Generated_Source\PSoC4/cyfitter_cfg.c **** {
 437              		.loc 1 301 0
ARM GAS  C:\Users\Nakio\AppData\Local\Temp\ccYAGn7K.s 			page 14


 438              		.cfi_startproc
 439 0000 80B5     		push	{r7, lr}
 440              		.cfi_def_cfa_offset 8
 441              		.cfi_offset 7, -8
 442              		.cfi_offset 14, -4
 443 0002 84B0     		sub	sp, sp, #16
 444              		.cfi_def_cfa_offset 24
 445 0004 00AF     		add	r7, sp, #0
 446              		.cfi_def_cfa_register 7
 447 0006 021C     		mov	r2, r0
 448 0008 FB1D     		add	r3, r7, #7
 449 000a 1A70     		strb	r2, [r3]
 302:Generated_Source\PSoC4/cyfitter_cfg.c **** 	uint32 regValue = CY_GET_XTND_REG32((void *)(CYREG_SAR_PUMP_CTRL));
 450              		.loc 1 302 0
 451 000c 154B     		ldr	r3, .L20
 452 000e 1B68     		ldr	r3, [r3]
 453 0010 FB60     		str	r3, [r7, #12]
 303:Generated_Source\PSoC4/cyfitter_cfg.c **** 	if (enabled != 0u)
 454              		.loc 1 303 0
 455 0012 FB1D     		add	r3, r7, #7
 456 0014 1B78     		ldrb	r3, [r3]
 457 0016 002B     		cmp	r3, #0
 458 0018 05D0     		beq	.L16
 304:Generated_Source\PSoC4/cyfitter_cfg.c **** 	{
 305:Generated_Source\PSoC4/cyfitter_cfg.c **** 		regValue |= 0x80000000u;
 459              		.loc 1 305 0
 460 001a FB68     		ldr	r3, [r7, #12]
 461 001c 8022     		mov	r2, #128
 462 001e 1206     		lsl	r2, r2, #24
 463 0020 1343     		orr	r3, r2
 464 0022 FB60     		str	r3, [r7, #12]
 465 0024 03E0     		b	.L17
 466              	.L16:
 306:Generated_Source\PSoC4/cyfitter_cfg.c **** 	}
 307:Generated_Source\PSoC4/cyfitter_cfg.c **** 	else
 308:Generated_Source\PSoC4/cyfitter_cfg.c **** 	{
 309:Generated_Source\PSoC4/cyfitter_cfg.c **** 		regValue &= ~0x80000000u;
 467              		.loc 1 309 0
 468 0026 FB68     		ldr	r3, [r7, #12]
 469 0028 5B00     		lsl	r3, r3, #1
 470 002a 5B08     		lsr	r3, r3, #1
 471 002c FB60     		str	r3, [r7, #12]
 472              	.L17:
 310:Generated_Source\PSoC4/cyfitter_cfg.c **** 	}
 311:Generated_Source\PSoC4/cyfitter_cfg.c **** 	CY_SET_XTND_REG32((void *)(CYREG_SAR_PUMP_CTRL), regValue);
 473              		.loc 1 311 0
 474 002e 0D4B     		ldr	r3, .L20
 475 0030 FA68     		ldr	r2, [r7, #12]
 476 0032 1A60     		str	r2, [r3]
 312:Generated_Source\PSoC4/cyfitter_cfg.c **** 	regValue = CY_GET_XTND_REG32((void *)(CYREG_CLK_IMO_CONFIG));
 477              		.loc 1 312 0
 478 0034 0C4B     		ldr	r3, .L20+4
 479 0036 1B68     		ldr	r3, [r3]
 480 0038 FB60     		str	r3, [r7, #12]
 313:Generated_Source\PSoC4/cyfitter_cfg.c **** 	if (enabled != 0u)
 481              		.loc 1 313 0
 482 003a FB1D     		add	r3, r7, #7
ARM GAS  C:\Users\Nakio\AppData\Local\Temp\ccYAGn7K.s 			page 15


 483 003c 1B78     		ldrb	r3, [r3]
 484 003e 002B     		cmp	r3, #0
 485 0040 05D0     		beq	.L18
 314:Generated_Source\PSoC4/cyfitter_cfg.c **** 	{
 315:Generated_Source\PSoC4/cyfitter_cfg.c **** 		regValue |= 0x26000000u;
 486              		.loc 1 315 0
 487 0042 FB68     		ldr	r3, [r7, #12]
 488 0044 9822     		mov	r2, #152
 489 0046 9205     		lsl	r2, r2, #22
 490 0048 1343     		orr	r3, r2
 491 004a FB60     		str	r3, [r7, #12]
 492 004c 03E0     		b	.L19
 493              	.L18:
 316:Generated_Source\PSoC4/cyfitter_cfg.c **** 	}
 317:Generated_Source\PSoC4/cyfitter_cfg.c **** 	else
 318:Generated_Source\PSoC4/cyfitter_cfg.c **** 	{
 319:Generated_Source\PSoC4/cyfitter_cfg.c **** 		regValue &= ~0x26000000u;
 494              		.loc 1 319 0
 495 004e FB68     		ldr	r3, [r7, #12]
 496 0050 064A     		ldr	r2, .L20+8
 497 0052 1340     		and	r3, r2
 498 0054 FB60     		str	r3, [r7, #12]
 499              	.L19:
 320:Generated_Source\PSoC4/cyfitter_cfg.c **** 	}
 321:Generated_Source\PSoC4/cyfitter_cfg.c **** 	CY_SET_XTND_REG32((void *)(CYREG_CLK_IMO_CONFIG), regValue);
 500              		.loc 1 321 0
 501 0056 044B     		ldr	r3, .L20+4
 502 0058 FA68     		ldr	r2, [r7, #12]
 503 005a 1A60     		str	r2, [r3]
 322:Generated_Source\PSoC4/cyfitter_cfg.c **** }
 504              		.loc 1 322 0
 505 005c BD46     		mov	sp, r7
 506 005e 04B0     		add	sp, sp, #16
 507              		@ sp needed
 508 0060 80BD     		pop	{r7, pc}
 509              	.L21:
 510 0062 C046     		.align	2
 511              	.L20:
 512 0064 80033A40 		.word	1077543808
 513 0068 08010B40 		.word	1074462984
 514 006c FFFFFFD9 		.word	-637534209
 515              		.cfi_endproc
 516              	.LFE8:
 517              		.size	SetAnalogRoutingPumps, .-SetAnalogRoutingPumps
 518              		.section	.psocinit
 519              		.align	2
 520              		.global	cyfitter_cfg
 521              		.code	16
 522              		.thumb_func
 523              		.type	cyfitter_cfg, %function
 524              	cyfitter_cfg:
 525              	.LFB9:
 323:Generated_Source\PSoC4/cyfitter_cfg.c **** 
 324:Generated_Source\PSoC4/cyfitter_cfg.c **** #define CY_AMUX_UNUSED CYREG_CM0_ROM_DWT
 325:Generated_Source\PSoC4/cyfitter_cfg.c **** 
 326:Generated_Source\PSoC4/cyfitter_cfg.c **** 
 327:Generated_Source\PSoC4/cyfitter_cfg.c **** /*******************************************************************************
ARM GAS  C:\Users\Nakio\AppData\Local\Temp\ccYAGn7K.s 			page 16


 328:Generated_Source\PSoC4/cyfitter_cfg.c **** * Function Name: cyfitter_cfg
 329:Generated_Source\PSoC4/cyfitter_cfg.c **** ********************************************************************************
 330:Generated_Source\PSoC4/cyfitter_cfg.c **** * Summary:
 331:Generated_Source\PSoC4/cyfitter_cfg.c **** *  This function is called by the start-up code for the selected device. It
 332:Generated_Source\PSoC4/cyfitter_cfg.c **** *  performs all of the necessary device configuration based on the design
 333:Generated_Source\PSoC4/cyfitter_cfg.c **** *  settings.  This includes settings from the Design Wide Resources (DWR) such
 334:Generated_Source\PSoC4/cyfitter_cfg.c **** *  as Clocks and Pins as well as any component configuration that is necessary.
 335:Generated_Source\PSoC4/cyfitter_cfg.c **** *
 336:Generated_Source\PSoC4/cyfitter_cfg.c **** * Parameters:  
 337:Generated_Source\PSoC4/cyfitter_cfg.c **** *   void
 338:Generated_Source\PSoC4/cyfitter_cfg.c **** *
 339:Generated_Source\PSoC4/cyfitter_cfg.c **** * Return:
 340:Generated_Source\PSoC4/cyfitter_cfg.c **** *   void
 341:Generated_Source\PSoC4/cyfitter_cfg.c **** *
 342:Generated_Source\PSoC4/cyfitter_cfg.c **** *******************************************************************************/
 343:Generated_Source\PSoC4/cyfitter_cfg.c **** CY_CFG_SECTION
 344:Generated_Source\PSoC4/cyfitter_cfg.c **** void cyfitter_cfg(void)
 345:Generated_Source\PSoC4/cyfitter_cfg.c **** {
 526              		.loc 1 345 0
 527              		.cfi_startproc
 528 0120 80B5     		push	{r7, lr}
 529              		.cfi_def_cfa_offset 8
 530              		.cfi_offset 7, -8
 531              		.cfi_offset 14, -4
 532 0122 82B0     		sub	sp, sp, #8
 533              		.cfi_def_cfa_offset 16
 534 0124 00AF     		add	r7, sp, #0
 535              		.cfi_def_cfa_register 7
 346:Generated_Source\PSoC4/cyfitter_cfg.c **** 	/* Disable interrupts by default. Let user enable if/when they want. */
 347:Generated_Source\PSoC4/cyfitter_cfg.c **** 	CyGlobalIntDisable;
 536              		.loc 1 347 0
 537              	@ 347 "Generated_Source\PSoC4\cyfitter_cfg.c" 1
 538 0126 72B6     		CPSID   i
 539              	@ 0 "" 2
 348:Generated_Source\PSoC4/cyfitter_cfg.c **** 
 349:Generated_Source\PSoC4/cyfitter_cfg.c **** 	CY_SET_XTND_REG32((void CYFAR *)(CYREG_BLE_BLESS_LL_DSM_CTRL), 0x00000000u);
 540              		.loc 1 349 0
 541              		.code	16
 542 0128 524B     		ldr	r3, .L25
 543 012a 0022     		mov	r2, #0
 544 012c 1A60     		str	r2, [r3]
 545              	.LBB3:
 350:Generated_Source\PSoC4/cyfitter_cfg.c **** 
 351:Generated_Source\PSoC4/cyfitter_cfg.c **** 	{
 352:Generated_Source\PSoC4/cyfitter_cfg.c **** 		static const uint32 CYCODE cy_cfg_addr_table[] = {
 353:Generated_Source\PSoC4/cyfitter_cfg.c **** 			0x400F3241u, /* Base address: 0x400F3200 Count: 65 */
 354:Generated_Source\PSoC4/cyfitter_cfg.c **** 			0x400F3323u, /* Base address: 0x400F3300 Count: 35 */
 355:Generated_Source\PSoC4/cyfitter_cfg.c **** 			0x400F4105u, /* Base address: 0x400F4100 Count: 5 */
 356:Generated_Source\PSoC4/cyfitter_cfg.c **** 			0x400F4202u, /* Base address: 0x400F4200 Count: 2 */
 357:Generated_Source\PSoC4/cyfitter_cfg.c **** 			0x400F4309u, /* Base address: 0x400F4300 Count: 9 */
 358:Generated_Source\PSoC4/cyfitter_cfg.c **** 			0x400F6002u, /* Base address: 0x400F6000 Count: 2 */
 359:Generated_Source\PSoC4/cyfitter_cfg.c **** 		};
 360:Generated_Source\PSoC4/cyfitter_cfg.c **** 
 361:Generated_Source\PSoC4/cyfitter_cfg.c **** 		static const cy_cfg_addrvalue_t CYCODE cy_cfg_data_table[] = {
 362:Generated_Source\PSoC4/cyfitter_cfg.c **** 			{0x05u, 0x01u},
 363:Generated_Source\PSoC4/cyfitter_cfg.c **** 			{0x09u, 0x01u},
 364:Generated_Source\PSoC4/cyfitter_cfg.c **** 			{0x0Bu, 0x02u},
ARM GAS  C:\Users\Nakio\AppData\Local\Temp\ccYAGn7K.s 			page 17


 365:Generated_Source\PSoC4/cyfitter_cfg.c **** 			{0x0Du, 0x01u},
 366:Generated_Source\PSoC4/cyfitter_cfg.c **** 			{0x0Fu, 0x02u},
 367:Generated_Source\PSoC4/cyfitter_cfg.c **** 			{0x2Eu, 0x01u},
 368:Generated_Source\PSoC4/cyfitter_cfg.c **** 			{0x33u, 0x03u},
 369:Generated_Source\PSoC4/cyfitter_cfg.c **** 			{0x36u, 0x01u},
 370:Generated_Source\PSoC4/cyfitter_cfg.c **** 			{0x39u, 0x08u},
 371:Generated_Source\PSoC4/cyfitter_cfg.c **** 			{0x40u, 0x06u},
 372:Generated_Source\PSoC4/cyfitter_cfg.c **** 			{0x46u, 0x01u},
 373:Generated_Source\PSoC4/cyfitter_cfg.c **** 			{0x48u, 0x05u},
 374:Generated_Source\PSoC4/cyfitter_cfg.c **** 			{0x49u, 0xFFu},
 375:Generated_Source\PSoC4/cyfitter_cfg.c **** 			{0x4Au, 0xFFu},
 376:Generated_Source\PSoC4/cyfitter_cfg.c **** 			{0x4Bu, 0xFFu},
 377:Generated_Source\PSoC4/cyfitter_cfg.c **** 			{0x4Cu, 0x02u},
 378:Generated_Source\PSoC4/cyfitter_cfg.c **** 			{0x4Du, 0x20u},
 379:Generated_Source\PSoC4/cyfitter_cfg.c **** 			{0x4Eu, 0xF0u},
 380:Generated_Source\PSoC4/cyfitter_cfg.c **** 			{0x52u, 0x03u},
 381:Generated_Source\PSoC4/cyfitter_cfg.c **** 			{0x58u, 0x04u},
 382:Generated_Source\PSoC4/cyfitter_cfg.c **** 			{0x59u, 0x0Fu},
 383:Generated_Source\PSoC4/cyfitter_cfg.c **** 			{0x5Au, 0x0Fu},
 384:Generated_Source\PSoC4/cyfitter_cfg.c **** 			{0x5Bu, 0x04u},
 385:Generated_Source\PSoC4/cyfitter_cfg.c **** 			{0x5Fu, 0x01u},
 386:Generated_Source\PSoC4/cyfitter_cfg.c **** 			{0x62u, 0x48u},
 387:Generated_Source\PSoC4/cyfitter_cfg.c **** 			{0x63u, 0xADu},
 388:Generated_Source\PSoC4/cyfitter_cfg.c **** 			{0x64u, 0xC0u},
 389:Generated_Source\PSoC4/cyfitter_cfg.c **** 			{0x66u, 0xC0u},
 390:Generated_Source\PSoC4/cyfitter_cfg.c **** 			{0x81u, 0x01u},
 391:Generated_Source\PSoC4/cyfitter_cfg.c **** 			{0x83u, 0x02u},
 392:Generated_Source\PSoC4/cyfitter_cfg.c **** 			{0x85u, 0x04u},
 393:Generated_Source\PSoC4/cyfitter_cfg.c **** 			{0x87u, 0x08u},
 394:Generated_Source\PSoC4/cyfitter_cfg.c **** 			{0x89u, 0x01u},
 395:Generated_Source\PSoC4/cyfitter_cfg.c **** 			{0x8Bu, 0x02u},
 396:Generated_Source\PSoC4/cyfitter_cfg.c **** 			{0x91u, 0x04u},
 397:Generated_Source\PSoC4/cyfitter_cfg.c **** 			{0x93u, 0x08u},
 398:Generated_Source\PSoC4/cyfitter_cfg.c **** 			{0x95u, 0x04u},
 399:Generated_Source\PSoC4/cyfitter_cfg.c **** 			{0x99u, 0x01u},
 400:Generated_Source\PSoC4/cyfitter_cfg.c **** 			{0xAEu, 0x01u},
 401:Generated_Source\PSoC4/cyfitter_cfg.c **** 			{0xB0u, 0x01u},
 402:Generated_Source\PSoC4/cyfitter_cfg.c **** 			{0xB5u, 0x03u},
 403:Generated_Source\PSoC4/cyfitter_cfg.c **** 			{0xB7u, 0x0Cu},
 404:Generated_Source\PSoC4/cyfitter_cfg.c **** 			{0xB8u, 0x20u},
 405:Generated_Source\PSoC4/cyfitter_cfg.c **** 			{0xB9u, 0xA0u},
 406:Generated_Source\PSoC4/cyfitter_cfg.c **** 			{0xBEu, 0x10u},
 407:Generated_Source\PSoC4/cyfitter_cfg.c **** 			{0xC0u, 0x06u},
 408:Generated_Source\PSoC4/cyfitter_cfg.c **** 			{0xC5u, 0x50u},
 409:Generated_Source\PSoC4/cyfitter_cfg.c **** 			{0xC7u, 0x14u},
 410:Generated_Source\PSoC4/cyfitter_cfg.c **** 			{0xC8u, 0x33u},
 411:Generated_Source\PSoC4/cyfitter_cfg.c **** 			{0xC9u, 0xFFu},
 412:Generated_Source\PSoC4/cyfitter_cfg.c **** 			{0xCAu, 0xFFu},
 413:Generated_Source\PSoC4/cyfitter_cfg.c **** 			{0xCBu, 0xFFu},
 414:Generated_Source\PSoC4/cyfitter_cfg.c **** 			{0xCCu, 0x02u},
 415:Generated_Source\PSoC4/cyfitter_cfg.c **** 			{0xCDu, 0x20u},
 416:Generated_Source\PSoC4/cyfitter_cfg.c **** 			{0xCEu, 0xF0u},
 417:Generated_Source\PSoC4/cyfitter_cfg.c **** 			{0xD2u, 0x07u},
 418:Generated_Source\PSoC4/cyfitter_cfg.c **** 			{0xD8u, 0x04u},
 419:Generated_Source\PSoC4/cyfitter_cfg.c **** 			{0xD9u, 0x0Cu},
 420:Generated_Source\PSoC4/cyfitter_cfg.c **** 			{0xDAu, 0x0Cu},
 421:Generated_Source\PSoC4/cyfitter_cfg.c **** 			{0xDBu, 0x04u},
ARM GAS  C:\Users\Nakio\AppData\Local\Temp\ccYAGn7K.s 			page 18


 422:Generated_Source\PSoC4/cyfitter_cfg.c **** 			{0xDFu, 0x01u},
 423:Generated_Source\PSoC4/cyfitter_cfg.c **** 			{0xE2u, 0x48u},
 424:Generated_Source\PSoC4/cyfitter_cfg.c **** 			{0xE3u, 0xADu},
 425:Generated_Source\PSoC4/cyfitter_cfg.c **** 			{0xE4u, 0xC0u},
 426:Generated_Source\PSoC4/cyfitter_cfg.c **** 			{0xE6u, 0xC0u},
 427:Generated_Source\PSoC4/cyfitter_cfg.c **** 			{0x10u, 0x02u},
 428:Generated_Source\PSoC4/cyfitter_cfg.c **** 			{0x15u, 0x40u},
 429:Generated_Source\PSoC4/cyfitter_cfg.c **** 			{0x19u, 0x20u},
 430:Generated_Source\PSoC4/cyfitter_cfg.c **** 			{0x1Bu, 0x01u},
 431:Generated_Source\PSoC4/cyfitter_cfg.c **** 			{0x1Fu, 0x80u},
 432:Generated_Source\PSoC4/cyfitter_cfg.c **** 			{0x21u, 0x80u},
 433:Generated_Source\PSoC4/cyfitter_cfg.c **** 			{0x23u, 0x08u},
 434:Generated_Source\PSoC4/cyfitter_cfg.c **** 			{0x26u, 0x04u},
 435:Generated_Source\PSoC4/cyfitter_cfg.c **** 			{0x30u, 0x28u},
 436:Generated_Source\PSoC4/cyfitter_cfg.c **** 			{0x31u, 0x01u},
 437:Generated_Source\PSoC4/cyfitter_cfg.c **** 			{0x38u, 0x02u},
 438:Generated_Source\PSoC4/cyfitter_cfg.c **** 			{0x39u, 0x14u},
 439:Generated_Source\PSoC4/cyfitter_cfg.c **** 			{0x3Du, 0x20u},
 440:Generated_Source\PSoC4/cyfitter_cfg.c **** 			{0x3Fu, 0x88u},
 441:Generated_Source\PSoC4/cyfitter_cfg.c **** 			{0x48u, 0x20u},
 442:Generated_Source\PSoC4/cyfitter_cfg.c **** 			{0x49u, 0x21u},
 443:Generated_Source\PSoC4/cyfitter_cfg.c **** 			{0x4Du, 0x20u},
 444:Generated_Source\PSoC4/cyfitter_cfg.c **** 			{0x4Fu, 0x08u},
 445:Generated_Source\PSoC4/cyfitter_cfg.c **** 			{0x50u, 0x09u},
 446:Generated_Source\PSoC4/cyfitter_cfg.c **** 			{0x57u, 0x40u},
 447:Generated_Source\PSoC4/cyfitter_cfg.c **** 			{0x68u, 0x02u},
 448:Generated_Source\PSoC4/cyfitter_cfg.c **** 			{0x69u, 0x14u},
 449:Generated_Source\PSoC4/cyfitter_cfg.c **** 			{0x6Du, 0x60u},
 450:Generated_Source\PSoC4/cyfitter_cfg.c **** 			{0x7Bu, 0x01u},
 451:Generated_Source\PSoC4/cyfitter_cfg.c **** 			{0x7Fu, 0x80u},
 452:Generated_Source\PSoC4/cyfitter_cfg.c **** 			{0x85u, 0x20u},
 453:Generated_Source\PSoC4/cyfitter_cfg.c **** 			{0x87u, 0x08u},
 454:Generated_Source\PSoC4/cyfitter_cfg.c **** 			{0x8Du, 0x80u},
 455:Generated_Source\PSoC4/cyfitter_cfg.c **** 			{0x8Eu, 0x04u},
 456:Generated_Source\PSoC4/cyfitter_cfg.c **** 			{0xC4u, 0x81u},
 457:Generated_Source\PSoC4/cyfitter_cfg.c **** 			{0xCCu, 0x07u},
 458:Generated_Source\PSoC4/cyfitter_cfg.c **** 			{0xCEu, 0x77u},
 459:Generated_Source\PSoC4/cyfitter_cfg.c **** 			{0xD2u, 0x24u},
 460:Generated_Source\PSoC4/cyfitter_cfg.c **** 			{0xDEu, 0x88u},
 461:Generated_Source\PSoC4/cyfitter_cfg.c **** 			{0xE0u, 0x08u},
 462:Generated_Source\PSoC4/cyfitter_cfg.c **** 			{0x39u, 0x04u},
 463:Generated_Source\PSoC4/cyfitter_cfg.c **** 			{0x3Du, 0x04u},
 464:Generated_Source\PSoC4/cyfitter_cfg.c **** 			{0x85u, 0x04u},
 465:Generated_Source\PSoC4/cyfitter_cfg.c **** 			{0xCEu, 0xC0u},
 466:Generated_Source\PSoC4/cyfitter_cfg.c **** 			{0xE6u, 0x40u},
 467:Generated_Source\PSoC4/cyfitter_cfg.c **** 			{0x62u, 0x08u},
 468:Generated_Source\PSoC4/cyfitter_cfg.c **** 			{0xD8u, 0x02u},
 469:Generated_Source\PSoC4/cyfitter_cfg.c **** 			{0x5Bu, 0x02u},
 470:Generated_Source\PSoC4/cyfitter_cfg.c **** 			{0x66u, 0x02u},
 471:Generated_Source\PSoC4/cyfitter_cfg.c **** 			{0x86u, 0x08u},
 472:Generated_Source\PSoC4/cyfitter_cfg.c **** 			{0x8Eu, 0x02u},
 473:Generated_Source\PSoC4/cyfitter_cfg.c **** 			{0x8Fu, 0x02u},
 474:Generated_Source\PSoC4/cyfitter_cfg.c **** 			{0xA6u, 0x08u},
 475:Generated_Source\PSoC4/cyfitter_cfg.c **** 			{0xD6u, 0x02u},
 476:Generated_Source\PSoC4/cyfitter_cfg.c **** 			{0xD8u, 0x01u},
 477:Generated_Source\PSoC4/cyfitter_cfg.c **** 			{0xE0u, 0x0Au},
 478:Generated_Source\PSoC4/cyfitter_cfg.c **** 			{0x10u, 0x01u},
ARM GAS  C:\Users\Nakio\AppData\Local\Temp\ccYAGn7K.s 			page 19


 479:Generated_Source\PSoC4/cyfitter_cfg.c **** 			{0x11u, 0x01u},
 480:Generated_Source\PSoC4/cyfitter_cfg.c **** 		};
 481:Generated_Source\PSoC4/cyfitter_cfg.c **** 
 482:Generated_Source\PSoC4/cyfitter_cfg.c **** 
 483:Generated_Source\PSoC4/cyfitter_cfg.c **** 
 484:Generated_Source\PSoC4/cyfitter_cfg.c **** 		CYPACKED typedef struct {
 485:Generated_Source\PSoC4/cyfitter_cfg.c **** 			void CYFAR *address;
 486:Generated_Source\PSoC4/cyfitter_cfg.c **** 			uint16 size;
 487:Generated_Source\PSoC4/cyfitter_cfg.c **** 		} CYPACKED_ATTR cfg_memset_t;
 488:Generated_Source\PSoC4/cyfitter_cfg.c **** 
 489:Generated_Source\PSoC4/cyfitter_cfg.c **** 		static const cfg_memset_t CYCODE cfg_memset_list [] = {
 490:Generated_Source\PSoC4/cyfitter_cfg.c **** 			/* address, size */
 491:Generated_Source\PSoC4/cyfitter_cfg.c **** 			{(void CYFAR *)(CYDEV_UDB_P0_U0_BASE), 1024u},
 492:Generated_Source\PSoC4/cyfitter_cfg.c **** 			{(void CYFAR *)(CYDEV_UDB_DSI0_BASE), 1024u},
 493:Generated_Source\PSoC4/cyfitter_cfg.c **** 		};
 494:Generated_Source\PSoC4/cyfitter_cfg.c **** 
 495:Generated_Source\PSoC4/cyfitter_cfg.c **** 		uint8 CYDATA i;
 496:Generated_Source\PSoC4/cyfitter_cfg.c **** 
 497:Generated_Source\PSoC4/cyfitter_cfg.c **** 		/* Zero out critical memory blocks before beginning configuration */
 498:Generated_Source\PSoC4/cyfitter_cfg.c **** 		for (i = 0u; i < (sizeof(cfg_memset_list)/sizeof(cfg_memset_list[0])); i++)
 546              		.loc 1 498 0
 547 012e FB1D     		add	r3, r7, #7
 548 0130 0022     		mov	r2, #0
 549 0132 1A70     		strb	r2, [r3]
 550 0134 23E0     		b	.L23
 551              	.L24:
 552              	.LBB4:
 499:Generated_Source\PSoC4/cyfitter_cfg.c **** 		{
 500:Generated_Source\PSoC4/cyfitter_cfg.c **** 			const cfg_memset_t CYCODE * CYDATA ms = &cfg_memset_list[i];
 553              		.loc 1 500 0 discriminator 3
 554 0136 FB1D     		add	r3, r7, #7
 555 0138 1A78     		ldrb	r2, [r3]
 556 013a 131C     		mov	r3, r2
 557 013c 5B00     		lsl	r3, r3, #1
 558 013e 9B18     		add	r3, r3, r2
 559 0140 5B00     		lsl	r3, r3, #1
 560 0142 4D4A     		ldr	r2, .L25+4
 561 0144 9B18     		add	r3, r3, r2
 562 0146 3B60     		str	r3, [r7]
 501:Generated_Source\PSoC4/cyfitter_cfg.c **** 			CYMEMZERO(ms->address, (size_t)(uint32)(ms->size));
 563              		.loc 1 501 0 discriminator 3
 564 0148 3B68     		ldr	r3, [r7]
 565 014a 1A78     		ldrb	r2, [r3]
 566 014c 5978     		ldrb	r1, [r3, #1]
 567 014e 0902     		lsl	r1, r1, #8
 568 0150 0A43     		orr	r2, r1
 569 0152 9978     		ldrb	r1, [r3, #2]
 570 0154 0904     		lsl	r1, r1, #16
 571 0156 0A43     		orr	r2, r1
 572 0158 DB78     		ldrb	r3, [r3, #3]
 573 015a 1B06     		lsl	r3, r3, #24
 574 015c 1343     		orr	r3, r2
 575 015e 191C     		mov	r1, r3
 576 0160 3B68     		ldr	r3, [r7]
 577 0162 1A79     		ldrb	r2, [r3, #4]
 578 0164 5B79     		ldrb	r3, [r3, #5]
 579 0166 1B02     		lsl	r3, r3, #8
ARM GAS  C:\Users\Nakio\AppData\Local\Temp\ccYAGn7K.s 			page 20


 580 0168 1343     		orr	r3, r2
 581 016a 9BB2     		uxth	r3, r3
 582 016c 081C     		mov	r0, r1
 583 016e 191C     		mov	r1, r3
 584 0170 FFF7FEFF 		bl	CYMEMZERO
 585              	.LBE4:
 498:Generated_Source\PSoC4/cyfitter_cfg.c **** 		{
 586              		.loc 1 498 0 discriminator 3
 587 0174 FB1D     		add	r3, r7, #7
 588 0176 1A78     		ldrb	r2, [r3]
 589 0178 FB1D     		add	r3, r7, #7
 590 017a 0132     		add	r2, r2, #1
 591 017c 1A70     		strb	r2, [r3]
 592              	.L23:
 498:Generated_Source\PSoC4/cyfitter_cfg.c **** 		{
 593              		.loc 1 498 0 is_stmt 0 discriminator 1
 594 017e FB1D     		add	r3, r7, #7
 595 0180 1B78     		ldrb	r3, [r3]
 596 0182 012B     		cmp	r3, #1
 597 0184 D7D9     		bls	.L24
 502:Generated_Source\PSoC4/cyfitter_cfg.c **** 		}
 503:Generated_Source\PSoC4/cyfitter_cfg.c **** 
 504:Generated_Source\PSoC4/cyfitter_cfg.c **** 		cfg_write_bytes32(cy_cfg_addr_table, cy_cfg_data_table);
 598              		.loc 1 504 0 is_stmt 1
 599 0186 3D4A     		ldr	r2, .L25+8
 600 0188 3D4B     		ldr	r3, .L25+12
 601 018a 101C     		mov	r0, r2
 602 018c 191C     		mov	r1, r3
 603 018e FFF7FEFF 		bl	cfg_write_bytes32
 505:Generated_Source\PSoC4/cyfitter_cfg.c **** 
 506:Generated_Source\PSoC4/cyfitter_cfg.c **** 		/* Perform normal device configuration. Order is not critical for these items. */
 507:Generated_Source\PSoC4/cyfitter_cfg.c **** 		CY_SET_XTND_REG16((void CYFAR *)(CYREG_UDB_BCTL0_DRV), 0x0100u);
 604              		.loc 1 507 0
 605 0192 3C4B     		ldr	r3, .L25+16
 606 0194 8022     		mov	r2, #128
 607 0196 5200     		lsl	r2, r2, #1
 608 0198 1A80     		strh	r2, [r3]
 508:Generated_Source\PSoC4/cyfitter_cfg.c **** 		CY_SET_XTND_REG8((void CYFAR *)(CYREG_UDB_BCTL0_DRV + 0x2u), 0x01u);
 609              		.loc 1 508 0
 610 019a 3B4B     		ldr	r3, .L25+20
 611 019c 0122     		mov	r2, #1
 612 019e 1A70     		strb	r2, [r3]
 509:Generated_Source\PSoC4/cyfitter_cfg.c **** 
 510:Generated_Source\PSoC4/cyfitter_cfg.c **** 		/* PWR_BG_CONFIG Starting address: CYDEV_PWR_BG_CONFIG */
 511:Generated_Source\PSoC4/cyfitter_cfg.c **** 		CY_SET_XTND_REG32((void CYFAR *)(CYREG_PWR_BG_CONFIG), 0x00040000u);
 613              		.loc 1 511 0
 614 01a0 3A4B     		ldr	r3, .L25+24
 615 01a2 8022     		mov	r2, #128
 616 01a4 D202     		lsl	r2, r2, #11
 617 01a6 1A60     		str	r2, [r3]
 512:Generated_Source\PSoC4/cyfitter_cfg.c **** 
 513:Generated_Source\PSoC4/cyfitter_cfg.c **** 		/* HSIOM Starting address: CYDEV_HSIOM_BASE */
 514:Generated_Source\PSoC4/cyfitter_cfg.c **** 		CY_SET_XTND_REG32((void CYFAR *)(CYDEV_HSIOM_BASE), 0xEE000000u);
 618              		.loc 1 514 0
 619 01a8 394B     		ldr	r3, .L25+28
 620 01aa EE22     		mov	r2, #238
 621 01ac 1206     		lsl	r2, r2, #24
ARM GAS  C:\Users\Nakio\AppData\Local\Temp\ccYAGn7K.s 			page 21


 622 01ae 1A60     		str	r2, [r3]
 515:Generated_Source\PSoC4/cyfitter_cfg.c **** 		CY_SET_XTND_REG32((void CYFAR *)(CYREG_HSIOM_PORT_SEL2), 0x03000000u);
 623              		.loc 1 515 0
 624 01b0 384B     		ldr	r3, .L25+32
 625 01b2 C022     		mov	r2, #192
 626 01b4 9204     		lsl	r2, r2, #18
 627 01b6 1A60     		str	r2, [r3]
 516:Generated_Source\PSoC4/cyfitter_cfg.c **** 		CY_SET_XTND_REG32((void CYFAR *)(CYREG_HSIOM_PORT_SEL3), 0x33000000u);
 628              		.loc 1 516 0
 629 01b8 374B     		ldr	r3, .L25+36
 630 01ba CC22     		mov	r2, #204
 631 01bc 9205     		lsl	r2, r2, #22
 632 01be 1A60     		str	r2, [r3]
 517:Generated_Source\PSoC4/cyfitter_cfg.c **** 
 518:Generated_Source\PSoC4/cyfitter_cfg.c **** 		/* UDB_PA_0 Starting address: CYDEV_UDB_PA0_BASE */
 519:Generated_Source\PSoC4/cyfitter_cfg.c **** 		CY_SET_XTND_REG32((void CYFAR *)(CYDEV_UDB_PA0_BASE), 0x00990000u);
 633              		.loc 1 519 0
 634 01c0 364B     		ldr	r3, .L25+40
 635 01c2 9922     		mov	r2, #153
 636 01c4 1204     		lsl	r2, r2, #16
 637 01c6 1A60     		str	r2, [r3]
 520:Generated_Source\PSoC4/cyfitter_cfg.c **** 
 521:Generated_Source\PSoC4/cyfitter_cfg.c **** 		/* UDB_PA_2 Starting address: CYDEV_UDB_PA2_BASE */
 522:Generated_Source\PSoC4/cyfitter_cfg.c **** 		CY_SET_XTND_REG32((void CYFAR *)(CYDEV_UDB_PA2_BASE), 0x00990000u);
 638              		.loc 1 522 0
 639 01c8 354B     		ldr	r3, .L25+44
 640 01ca 9922     		mov	r2, #153
 641 01cc 1204     		lsl	r2, r2, #16
 642 01ce 1A60     		str	r2, [r3]
 523:Generated_Source\PSoC4/cyfitter_cfg.c **** 		CY_SET_XTND_REG32((void CYFAR *)(CYREG_UDB_PA2_CFG4), 0x80000000u);
 643              		.loc 1 523 0
 644 01d0 344B     		ldr	r3, .L25+48
 645 01d2 8022     		mov	r2, #128
 646 01d4 1206     		lsl	r2, r2, #24
 647 01d6 1A60     		str	r2, [r3]
 524:Generated_Source\PSoC4/cyfitter_cfg.c **** 		CY_SET_XTND_REG32((void CYFAR *)(CYREG_UDB_PA2_CFG8), 0x20000000u);
 648              		.loc 1 524 0
 649 01d8 334B     		ldr	r3, .L25+52
 650 01da 8022     		mov	r2, #128
 651 01dc 9205     		lsl	r2, r2, #22
 652 01de 1A60     		str	r2, [r3]
 525:Generated_Source\PSoC4/cyfitter_cfg.c **** 
 526:Generated_Source\PSoC4/cyfitter_cfg.c **** 		/* UDB_PA_3 Starting address: CYDEV_UDB_PA3_BASE */
 527:Generated_Source\PSoC4/cyfitter_cfg.c **** 		CY_SET_XTND_REG32((void CYFAR *)(CYDEV_UDB_PA3_BASE), 0x00990000u);
 653              		.loc 1 527 0
 654 01e0 324B     		ldr	r3, .L25+56
 655 01e2 9922     		mov	r2, #153
 656 01e4 1204     		lsl	r2, r2, #16
 657 01e6 1A60     		str	r2, [r3]
 528:Generated_Source\PSoC4/cyfitter_cfg.c **** 		CY_SET_XTND_REG32((void CYFAR *)(CYREG_UDB_PA3_CFG8), 0xC5000000u);
 658              		.loc 1 528 0
 659 01e8 314B     		ldr	r3, .L25+60
 660 01ea C522     		mov	r2, #197
 661 01ec 1206     		lsl	r2, r2, #24
 662 01ee 1A60     		str	r2, [r3]
 529:Generated_Source\PSoC4/cyfitter_cfg.c **** 
 530:Generated_Source\PSoC4/cyfitter_cfg.c **** 		/* Enable digital routing */
ARM GAS  C:\Users\Nakio\AppData\Local\Temp\ccYAGn7K.s 			page 22


 531:Generated_Source\PSoC4/cyfitter_cfg.c **** 		CY_SET_XTND_REG8((void *)CYREG_UDB_UDBIF_BANK_CTL, CY_GET_XTND_REG8((void *)CYREG_UDB_UDBIF_BANK_
 663              		.loc 1 531 0
 664 01f0 304A     		ldr	r2, .L25+64
 665 01f2 304B     		ldr	r3, .L25+64
 666 01f4 1B78     		ldrb	r3, [r3]
 667 01f6 DBB2     		uxtb	r3, r3
 668 01f8 0221     		mov	r1, #2
 669 01fa 0B43     		orr	r3, r1
 670 01fc DBB2     		uxtb	r3, r3
 671 01fe 1370     		strb	r3, [r2]
 532:Generated_Source\PSoC4/cyfitter_cfg.c **** 
 533:Generated_Source\PSoC4/cyfitter_cfg.c **** 		/* Enable UDB array */
 534:Generated_Source\PSoC4/cyfitter_cfg.c **** 		CY_SET_XTND_REG8((void *)CYREG_UDB_UDBIF_WAIT_CFG, (uint8)((CY_GET_XTND_REG8((void *)CYREG_UDB_UD
 672              		.loc 1 534 0
 673 0200 2D4A     		ldr	r2, .L25+68
 674 0202 2D4B     		ldr	r3, .L25+68
 675 0204 1B78     		ldrb	r3, [r3]
 676 0206 DBB2     		uxtb	r3, r3
 677 0208 3C21     		mov	r1, #60
 678 020a 8B43     		bic	r3, r1
 679 020c DBB2     		uxtb	r3, r3
 680 020e 1421     		mov	r1, #20
 681 0210 0B43     		orr	r3, r1
 682 0212 DBB2     		uxtb	r3, r3
 683 0214 1370     		strb	r3, [r2]
 535:Generated_Source\PSoC4/cyfitter_cfg.c **** 		CY_SET_XTND_REG8((void *)CYREG_UDB_UDBIF_BANK_CTL, (uint8)(CY_GET_XTND_REG8((void *)CYREG_UDB_UDB
 684              		.loc 1 535 0
 685 0216 274A     		ldr	r2, .L25+64
 686 0218 264B     		ldr	r3, .L25+64
 687 021a 1B78     		ldrb	r3, [r3]
 688 021c DBB2     		uxtb	r3, r3
 689 021e 1621     		mov	r1, #22
 690 0220 0B43     		orr	r3, r1
 691 0222 DBB2     		uxtb	r3, r3
 692 0224 1370     		strb	r3, [r2]
 693              	.LBE3:
 536:Generated_Source\PSoC4/cyfitter_cfg.c **** 	}
 537:Generated_Source\PSoC4/cyfitter_cfg.c **** 
 538:Generated_Source\PSoC4/cyfitter_cfg.c **** 	/* Perform second pass device configuration. These items must be configured in specific order afte
 539:Generated_Source\PSoC4/cyfitter_cfg.c **** 	/* IOPINS0_0 Starting address: CYDEV_GPIO_PRT0_BASE */
 540:Generated_Source\PSoC4/cyfitter_cfg.c **** 	CY_SET_XTND_REG32((void CYFAR *)(CYREG_GPIO_PRT0_PC), 0x00D80000u);
 694              		.loc 1 540 0
 695 0226 254B     		ldr	r3, .L25+72
 696 0228 D822     		mov	r2, #216
 697 022a 1204     		lsl	r2, r2, #16
 698 022c 1A60     		str	r2, [r3]
 541:Generated_Source\PSoC4/cyfitter_cfg.c **** 
 542:Generated_Source\PSoC4/cyfitter_cfg.c **** 	/* IOPINS0_2 Starting address: CYDEV_GPIO_PRT2_BASE */
 543:Generated_Source\PSoC4/cyfitter_cfg.c **** 	CY_SET_XTND_REG32((void CYFAR *)(CYDEV_GPIO_PRT2_BASE), 0x000000FEu);
 699              		.loc 1 543 0
 700 022e 244B     		ldr	r3, .L25+76
 701 0230 FE22     		mov	r2, #254
 702 0232 1A60     		str	r2, [r3]
 544:Generated_Source\PSoC4/cyfitter_cfg.c **** 	CY_SET_XTND_REG32((void CYFAR *)(CYREG_GPIO_PRT2_PC), 0x00440000u);
 703              		.loc 1 544 0
 704 0234 234B     		ldr	r3, .L25+80
 705 0236 8822     		mov	r2, #136
ARM GAS  C:\Users\Nakio\AppData\Local\Temp\ccYAGn7K.s 			page 23


 706 0238 D203     		lsl	r2, r2, #15
 707 023a 1A60     		str	r2, [r3]
 545:Generated_Source\PSoC4/cyfitter_cfg.c **** 	CY_SET_XTND_REG32((void CYFAR *)(CYREG_GPIO_PRT2_INTR_CFG), 0x00008000u);
 708              		.loc 1 545 0
 709 023c 224B     		ldr	r3, .L25+84
 710 023e 8022     		mov	r2, #128
 711 0240 1202     		lsl	r2, r2, #8
 712 0242 1A60     		str	r2, [r3]
 546:Generated_Source\PSoC4/cyfitter_cfg.c **** 	CY_SET_XTND_REG32((void CYFAR *)(CYREG_GPIO_PRT2_PC2), 0x0000003Eu);
 713              		.loc 1 546 0
 714 0244 214B     		ldr	r3, .L25+88
 715 0246 3E22     		mov	r2, #62
 716 0248 1A60     		str	r2, [r3]
 547:Generated_Source\PSoC4/cyfitter_cfg.c **** 
 548:Generated_Source\PSoC4/cyfitter_cfg.c **** 	/* IOPINS0_3 Starting address: CYDEV_GPIO_PRT3_BASE */
 549:Generated_Source\PSoC4/cyfitter_cfg.c **** 	CY_SET_XTND_REG32((void CYFAR *)(CYDEV_GPIO_PRT3_BASE), 0x000000C0u);
 717              		.loc 1 549 0
 718 024a 214B     		ldr	r3, .L25+92
 719 024c C022     		mov	r2, #192
 720 024e 1A60     		str	r2, [r3]
 550:Generated_Source\PSoC4/cyfitter_cfg.c **** 	CY_SET_XTND_REG32((void CYFAR *)(CYREG_GPIO_PRT3_PC), 0x00240000u);
 721              		.loc 1 550 0
 722 0250 204B     		ldr	r3, .L25+96
 723 0252 9022     		mov	r2, #144
 724 0254 9203     		lsl	r2, r2, #14
 725 0256 1A60     		str	r2, [r3]
 551:Generated_Source\PSoC4/cyfitter_cfg.c **** 
 552:Generated_Source\PSoC4/cyfitter_cfg.c **** 	/* IOPINS0_4 Starting address: CYDEV_GPIO_PRT4_BASE */
 553:Generated_Source\PSoC4/cyfitter_cfg.c **** 	CY_SET_XTND_REG32((void CYFAR *)(CYDEV_GPIO_PRT4_BASE), 0x00000001u);
 726              		.loc 1 553 0
 727 0258 1F4B     		ldr	r3, .L25+100
 728 025a 0122     		mov	r2, #1
 729 025c 1A60     		str	r2, [r3]
 554:Generated_Source\PSoC4/cyfitter_cfg.c **** 	CY_SET_XTND_REG32((void CYFAR *)(CYREG_GPIO_PRT4_PC2), 0x00000001u);
 730              		.loc 1 554 0
 731 025e 1F4B     		ldr	r3, .L25+104
 732 0260 0122     		mov	r2, #1
 733 0262 1A60     		str	r2, [r3]
 555:Generated_Source\PSoC4/cyfitter_cfg.c **** 
 556:Generated_Source\PSoC4/cyfitter_cfg.c **** 
 557:Generated_Source\PSoC4/cyfitter_cfg.c **** 	/* Setup clocks based on selections from Clock DWR */
 558:Generated_Source\PSoC4/cyfitter_cfg.c **** 	ClockSetup();
 734              		.loc 1 558 0
 735 0264 FFF7CCFE 		bl	ClockSetup
 559:Generated_Source\PSoC4/cyfitter_cfg.c **** 
 560:Generated_Source\PSoC4/cyfitter_cfg.c **** 	/* Perform basic analog initialization to defaults */
 561:Generated_Source\PSoC4/cyfitter_cfg.c **** 	AnalogSetDefault();
 736              		.loc 1 561 0
 737 0268 FFF7FEFF 		bl	AnalogSetDefault
 562:Generated_Source\PSoC4/cyfitter_cfg.c **** 
 563:Generated_Source\PSoC4/cyfitter_cfg.c **** }
 738              		.loc 1 563 0
 739 026c BD46     		mov	sp, r7
 740 026e 02B0     		add	sp, sp, #8
 741              		@ sp needed
 742 0270 80BD     		pop	{r7, pc}
 743              	.L26:
ARM GAS  C:\Users\Nakio\AppData\Local\Temp\ccYAGn7K.s 			page 24


 744 0272 C046     		.align	2
 745              	.L25:
 746 0274 6CF02E40 		.word	1076818028
 747 0278 00000000 		.word	cfg_memset_list.4771
 748 027c 0C000000 		.word	cy_cfg_addr_table.4765
 749 0280 24000000 		.word	cy_cfg_data_table.4766
 750 0284 00600F40 		.word	1074749440
 751 0288 02600F40 		.word	1074749442
 752 028c 14000B40 		.word	1074462740
 753 0290 00000240 		.word	1073872896
 754 0294 00020240 		.word	1073873408
 755 0298 00030240 		.word	1073873664
 756 029c 00500F40 		.word	1074745344
 757 02a0 20500F40 		.word	1074745376
 758 02a4 24500F40 		.word	1074745380
 759 02a8 28500F40 		.word	1074745384
 760 02ac 30500F40 		.word	1074745392
 761 02b0 38500F40 		.word	1074745400
 762 02b4 00700F40 		.word	1074753536
 763 02b8 01700F40 		.word	1074753537
 764 02bc 08000440 		.word	1074003976
 765 02c0 00020440 		.word	1074004480
 766 02c4 08020440 		.word	1074004488
 767 02c8 0C020440 		.word	1074004492
 768 02cc 18020440 		.word	1074004504
 769 02d0 00030440 		.word	1074004736
 770 02d4 08030440 		.word	1074004744
 771 02d8 00040440 		.word	1074004992
 772 02dc 18040440 		.word	1074005016
 773              		.cfi_endproc
 774              	.LFE9:
 775              		.size	cyfitter_cfg, .-cyfitter_cfg
 776              		.section	.rodata
 777              		.align	2
 778              		.type	cfg_memset_list.4771, %object
 779              		.size	cfg_memset_list.4771, 12
 780              	cfg_memset_list.4771:
 781 0000 00300F40 		.word	1074737152
 782 0004 0004     		.short	1024
 783 0006 00400F40 		.4byte	1074741248
 784 000a 0004     		.short	1024
 785              		.align	2
 786              		.type	cy_cfg_addr_table.4765, %object
 787              		.size	cy_cfg_addr_table.4765, 24
 788              	cy_cfg_addr_table.4765:
 789 000c 41320F40 		.word	1074737729
 790 0010 23330F40 		.word	1074737955
 791 0014 05410F40 		.word	1074741509
 792 0018 02420F40 		.word	1074741762
 793 001c 09430F40 		.word	1074742025
 794 0020 02600F40 		.word	1074749442
 795              		.align	2
 796              		.type	cy_cfg_data_table.4766, %object
 797              		.size	cy_cfg_data_table.4766, 236
 798              	cy_cfg_data_table.4766:
 799 0024 05       		.byte	5
 800 0025 01       		.byte	1
ARM GAS  C:\Users\Nakio\AppData\Local\Temp\ccYAGn7K.s 			page 25


 801 0026 09       		.byte	9
 802 0027 01       		.byte	1
 803 0028 0B       		.byte	11
 804 0029 02       		.byte	2
 805 002a 0D       		.byte	13
 806 002b 01       		.byte	1
 807 002c 0F       		.byte	15
 808 002d 02       		.byte	2
 809 002e 2E       		.byte	46
 810 002f 01       		.byte	1
 811 0030 33       		.byte	51
 812 0031 03       		.byte	3
 813 0032 36       		.byte	54
 814 0033 01       		.byte	1
 815 0034 39       		.byte	57
 816 0035 08       		.byte	8
 817 0036 40       		.byte	64
 818 0037 06       		.byte	6
 819 0038 46       		.byte	70
 820 0039 01       		.byte	1
 821 003a 48       		.byte	72
 822 003b 05       		.byte	5
 823 003c 49       		.byte	73
 824 003d FF       		.byte	-1
 825 003e 4A       		.byte	74
 826 003f FF       		.byte	-1
 827 0040 4B       		.byte	75
 828 0041 FF       		.byte	-1
 829 0042 4C       		.byte	76
 830 0043 02       		.byte	2
 831 0044 4D       		.byte	77
 832 0045 20       		.byte	32
 833 0046 4E       		.byte	78
 834 0047 F0       		.byte	-16
 835 0048 52       		.byte	82
 836 0049 03       		.byte	3
 837 004a 58       		.byte	88
 838 004b 04       		.byte	4
 839 004c 59       		.byte	89
 840 004d 0F       		.byte	15
 841 004e 5A       		.byte	90
 842 004f 0F       		.byte	15
 843 0050 5B       		.byte	91
 844 0051 04       		.byte	4
 845 0052 5F       		.byte	95
 846 0053 01       		.byte	1
 847 0054 62       		.byte	98
 848 0055 48       		.byte	72
 849 0056 63       		.byte	99
 850 0057 AD       		.byte	-83
 851 0058 64       		.byte	100
 852 0059 C0       		.byte	-64
 853 005a 66       		.byte	102
 854 005b C0       		.byte	-64
 855 005c 81       		.byte	-127
 856 005d 01       		.byte	1
 857 005e 83       		.byte	-125
ARM GAS  C:\Users\Nakio\AppData\Local\Temp\ccYAGn7K.s 			page 26


 858 005f 02       		.byte	2
 859 0060 85       		.byte	-123
 860 0061 04       		.byte	4
 861 0062 87       		.byte	-121
 862 0063 08       		.byte	8
 863 0064 89       		.byte	-119
 864 0065 01       		.byte	1
 865 0066 8B       		.byte	-117
 866 0067 02       		.byte	2
 867 0068 91       		.byte	-111
 868 0069 04       		.byte	4
 869 006a 93       		.byte	-109
 870 006b 08       		.byte	8
 871 006c 95       		.byte	-107
 872 006d 04       		.byte	4
 873 006e 99       		.byte	-103
 874 006f 01       		.byte	1
 875 0070 AE       		.byte	-82
 876 0071 01       		.byte	1
 877 0072 B0       		.byte	-80
 878 0073 01       		.byte	1
 879 0074 B5       		.byte	-75
 880 0075 03       		.byte	3
 881 0076 B7       		.byte	-73
 882 0077 0C       		.byte	12
 883 0078 B8       		.byte	-72
 884 0079 20       		.byte	32
 885 007a B9       		.byte	-71
 886 007b A0       		.byte	-96
 887 007c BE       		.byte	-66
 888 007d 10       		.byte	16
 889 007e C0       		.byte	-64
 890 007f 06       		.byte	6
 891 0080 C5       		.byte	-59
 892 0081 50       		.byte	80
 893 0082 C7       		.byte	-57
 894 0083 14       		.byte	20
 895 0084 C8       		.byte	-56
 896 0085 33       		.byte	51
 897 0086 C9       		.byte	-55
 898 0087 FF       		.byte	-1
 899 0088 CA       		.byte	-54
 900 0089 FF       		.byte	-1
 901 008a CB       		.byte	-53
 902 008b FF       		.byte	-1
 903 008c CC       		.byte	-52
 904 008d 02       		.byte	2
 905 008e CD       		.byte	-51
 906 008f 20       		.byte	32
 907 0090 CE       		.byte	-50
 908 0091 F0       		.byte	-16
 909 0092 D2       		.byte	-46
 910 0093 07       		.byte	7
 911 0094 D8       		.byte	-40
 912 0095 04       		.byte	4
 913 0096 D9       		.byte	-39
 914 0097 0C       		.byte	12
ARM GAS  C:\Users\Nakio\AppData\Local\Temp\ccYAGn7K.s 			page 27


 915 0098 DA       		.byte	-38
 916 0099 0C       		.byte	12
 917 009a DB       		.byte	-37
 918 009b 04       		.byte	4
 919 009c DF       		.byte	-33
 920 009d 01       		.byte	1
 921 009e E2       		.byte	-30
 922 009f 48       		.byte	72
 923 00a0 E3       		.byte	-29
 924 00a1 AD       		.byte	-83
 925 00a2 E4       		.byte	-28
 926 00a3 C0       		.byte	-64
 927 00a4 E6       		.byte	-26
 928 00a5 C0       		.byte	-64
 929 00a6 10       		.byte	16
 930 00a7 02       		.byte	2
 931 00a8 15       		.byte	21
 932 00a9 40       		.byte	64
 933 00aa 19       		.byte	25
 934 00ab 20       		.byte	32
 935 00ac 1B       		.byte	27
 936 00ad 01       		.byte	1
 937 00ae 1F       		.byte	31
 938 00af 80       		.byte	-128
 939 00b0 21       		.byte	33
 940 00b1 80       		.byte	-128
 941 00b2 23       		.byte	35
 942 00b3 08       		.byte	8
 943 00b4 26       		.byte	38
 944 00b5 04       		.byte	4
 945 00b6 30       		.byte	48
 946 00b7 28       		.byte	40
 947 00b8 31       		.byte	49
 948 00b9 01       		.byte	1
 949 00ba 38       		.byte	56
 950 00bb 02       		.byte	2
 951 00bc 39       		.byte	57
 952 00bd 14       		.byte	20
 953 00be 3D       		.byte	61
 954 00bf 20       		.byte	32
 955 00c0 3F       		.byte	63
 956 00c1 88       		.byte	-120
 957 00c2 48       		.byte	72
 958 00c3 20       		.byte	32
 959 00c4 49       		.byte	73
 960 00c5 21       		.byte	33
 961 00c6 4D       		.byte	77
 962 00c7 20       		.byte	32
 963 00c8 4F       		.byte	79
 964 00c9 08       		.byte	8
 965 00ca 50       		.byte	80
 966 00cb 09       		.byte	9
 967 00cc 57       		.byte	87
 968 00cd 40       		.byte	64
 969 00ce 68       		.byte	104
 970 00cf 02       		.byte	2
 971 00d0 69       		.byte	105
ARM GAS  C:\Users\Nakio\AppData\Local\Temp\ccYAGn7K.s 			page 28


 972 00d1 14       		.byte	20
 973 00d2 6D       		.byte	109
 974 00d3 60       		.byte	96
 975 00d4 7B       		.byte	123
 976 00d5 01       		.byte	1
 977 00d6 7F       		.byte	127
 978 00d7 80       		.byte	-128
 979 00d8 85       		.byte	-123
 980 00d9 20       		.byte	32
 981 00da 87       		.byte	-121
 982 00db 08       		.byte	8
 983 00dc 8D       		.byte	-115
 984 00dd 80       		.byte	-128
 985 00de 8E       		.byte	-114
 986 00df 04       		.byte	4
 987 00e0 C4       		.byte	-60
 988 00e1 81       		.byte	-127
 989 00e2 CC       		.byte	-52
 990 00e3 07       		.byte	7
 991 00e4 CE       		.byte	-50
 992 00e5 77       		.byte	119
 993 00e6 D2       		.byte	-46
 994 00e7 24       		.byte	36
 995 00e8 DE       		.byte	-34
 996 00e9 88       		.byte	-120
 997 00ea E0       		.byte	-32
 998 00eb 08       		.byte	8
 999 00ec 39       		.byte	57
 1000 00ed 04       		.byte	4
 1001 00ee 3D       		.byte	61
 1002 00ef 04       		.byte	4
 1003 00f0 85       		.byte	-123
 1004 00f1 04       		.byte	4
 1005 00f2 CE       		.byte	-50
 1006 00f3 C0       		.byte	-64
 1007 00f4 E6       		.byte	-26
 1008 00f5 40       		.byte	64
 1009 00f6 62       		.byte	98
 1010 00f7 08       		.byte	8
 1011 00f8 D8       		.byte	-40
 1012 00f9 02       		.byte	2
 1013 00fa 5B       		.byte	91
 1014 00fb 02       		.byte	2
 1015 00fc 66       		.byte	102
 1016 00fd 02       		.byte	2
 1017 00fe 86       		.byte	-122
 1018 00ff 08       		.byte	8
 1019 0100 8E       		.byte	-114
 1020 0101 02       		.byte	2
 1021 0102 8F       		.byte	-113
 1022 0103 02       		.byte	2
 1023 0104 A6       		.byte	-90
 1024 0105 08       		.byte	8
 1025 0106 D6       		.byte	-42
 1026 0107 02       		.byte	2
 1027 0108 D8       		.byte	-40
 1028 0109 01       		.byte	1
ARM GAS  C:\Users\Nakio\AppData\Local\Temp\ccYAGn7K.s 			page 29


 1029 010a E0       		.byte	-32
 1030 010b 0A       		.byte	10
 1031 010c 10       		.byte	16
 1032 010d 01       		.byte	1
 1033 010e 11       		.byte	17
 1034 010f 01       		.byte	1
 1035              		.text
 1036              	.Letext0:
 1037              		.file 2 "f:\\program files (x86)\\cypress\\psoc creator\\4.0\\psoc creator\\import\\gnu\\arm\\4.9.
 1038              		.file 3 "Generated_Source\\PSoC4\\cytypes.h"