ARM GAS  C:\Users\Nakio\AppData\Local\Temp\ccuS0jaZ.s 			page 1


   1              		.cpu cortex-m0
   2              		.fpu softvfp
   3              		.eabi_attribute 20, 1
   4              		.eabi_attribute 21, 1
   5              		.eabi_attribute 23, 3
   6              		.eabi_attribute 24, 1
   7              		.eabi_attribute 25, 1
   8              		.eabi_attribute 26, 1
   9              		.eabi_attribute 30, 6
  10              		.eabi_attribute 34, 0
  11              		.eabi_attribute 18, 4
  12              		.code	16
  13              		.file	"HandleLowPower.c"
  14              		.text
  15              	.Ltext0:
  16              		.cfi_sections	.debug_frame
  17              		.section	.text.HandleLowPowerMode,"ax",%progbits
  18              		.align	2
  19              		.global	HandleLowPowerMode
  20              		.code	16
  21              		.thumb_func
  22              		.type	HandleLowPowerMode, %function
  23              	HandleLowPowerMode:
  24              	.LFB37:
  25              		.file 1 "HandleLowPower.c"
   1:HandleLowPower.c **** /******************************************************************************
   2:HandleLowPower.c **** * Project Name		: PSoC_4_BLE_CapSense_Slider_LED
   3:HandleLowPower.c **** * File Name			: HandleLowPower.c
   4:HandleLowPower.c **** * Version 			: 1.0
   5:HandleLowPower.c **** * Device Used		: CY8C4248LQI-BL583
   6:HandleLowPower.c **** * Software Used		: PSoC Creator 3.3 CP2
   7:HandleLowPower.c **** * Compiler    		: ARM GCC 4.9.3, ARM MDK Generic
   8:HandleLowPower.c **** * Related Hardware	: CY8CKIT-042-BLE-A Bluetooth Low Energy Pioneer Kit 
   9:HandleLowPower.c **** * Owner             : ROIT
  10:HandleLowPower.c **** *
  11:HandleLowPower.c **** ********************************************************************************
  12:HandleLowPower.c **** * Copyright (2015-16), Cypress Semiconductor Corporation. All Rights Reserved.
  13:HandleLowPower.c **** ********************************************************************************
  14:HandleLowPower.c **** * This software is owned by Cypress Semiconductor Corporation (Cypress)
  15:HandleLowPower.c **** * and is protected by and subject to worldwide patent protection (United
  16:HandleLowPower.c **** * States and foreign), United States copyright laws and international treaty
  17:HandleLowPower.c **** * provisions. Cypress hereby grants to licensee a personal, non-exclusive,
  18:HandleLowPower.c **** * non-transferable license to copy, use, modify, create derivative works of,
  19:HandleLowPower.c **** * and compile the Cypress Source Code and derivative works for the sole
  20:HandleLowPower.c **** * purpose of creating custom software in support of licensee product to be
  21:HandleLowPower.c **** * used only in conjunction with a Cypress integrated circuit as specified in
  22:HandleLowPower.c **** * the applicable agreement. Any reproduction, modification, translation,
  23:HandleLowPower.c **** * compilation, or representation of this software except as specified above 
  24:HandleLowPower.c **** * is prohibited without the express written permission of Cypress.
  25:HandleLowPower.c **** *
  26:HandleLowPower.c **** * Disclaimer: CYPRESS MAKES NO WARRANTY OF ANY KIND, EXPRESS OR IMPLIED, WITH 
  27:HandleLowPower.c **** * REGARD TO THIS MATERIAL, INCLUDING, BUT NOT LIMITED TO, THE IMPLIED 
  28:HandleLowPower.c **** * WARRANTIES OF MERCHANTABILITY AND FITNESS FOR A PARTICULAR PURPOSE.
  29:HandleLowPower.c **** * Cypress reserves the right to make changes without further notice to the 
  30:HandleLowPower.c **** * materials described herein. Cypress does not assume any liability arising out 
  31:HandleLowPower.c **** * of the application or use of any product or circuit described herein. Cypress 
  32:HandleLowPower.c **** * does not authorize its products for use as critical components in life-support 
ARM GAS  C:\Users\Nakio\AppData\Local\Temp\ccuS0jaZ.s 			page 2


  33:HandleLowPower.c **** * systems where a malfunction or failure may reasonably be expected to result in 
  34:HandleLowPower.c **** * significant injury to the user. The inclusion of Cypress' product in a life-
  35:HandleLowPower.c **** * support systems application implies that the manufacturer assumes all risk of 
  36:HandleLowPower.c **** * such use and in doing so indemnifies Cypress against all charges. 
  37:HandleLowPower.c **** *
  38:HandleLowPower.c **** * Use of this Software may be limited by and subject to the applicable Cypress
  39:HandleLowPower.c **** * software license agreement. 
  40:HandleLowPower.c **** *******************************************************************************/
  41:HandleLowPower.c **** #include <main.h>
  42:HandleLowPower.c **** 
  43:HandleLowPower.c **** extern uint8 shut_down_led;
  44:HandleLowPower.c **** /*******************************************************************************
  45:HandleLowPower.c **** * Function Name: HandleLowPowerMode
  46:HandleLowPower.c **** ********************************************************************************
  47:HandleLowPower.c **** * Summary:
  48:HandleLowPower.c **** *        This function puts the BLESS in deep sleep mode and CPU to sleep mode. 
  49:HandleLowPower.c **** * System will resume from here when it wakes from user button press.
  50:HandleLowPower.c **** *
  51:HandleLowPower.c **** * Parameters:
  52:HandleLowPower.c **** *  void
  53:HandleLowPower.c **** *
  54:HandleLowPower.c **** * Return:
  55:HandleLowPower.c **** *  void
  56:HandleLowPower.c **** *
  57:HandleLowPower.c **** *******************************************************************************/
  58:HandleLowPower.c **** void HandleLowPowerMode(void)
  59:HandleLowPower.c **** {
  26              		.loc 1 59 0
  27              		.cfi_startproc
  28 0000 90B5     		push	{r4, r7, lr}
  29              		.cfi_def_cfa_offset 12
  30              		.cfi_offset 4, -12
  31              		.cfi_offset 7, -8
  32              		.cfi_offset 14, -4
  33 0002 83B0     		sub	sp, sp, #12
  34              		.cfi_def_cfa_offset 24
  35 0004 00AF     		add	r7, sp, #0
  36              		.cfi_def_cfa_register 7
  60:HandleLowPower.c **** 	#ifdef ENABLE_LOW_POWER_MODE
  61:HandleLowPower.c **** 		/* Local variable to store the status of BLESS Hardware block */
  62:HandleLowPower.c **** 		CYBLE_LP_MODE_T sleepMode;
  63:HandleLowPower.c **** 		CYBLE_BLESS_STATE_T blessState;
  64:HandleLowPower.c **** 		
  65:HandleLowPower.c **** 		#ifdef CAPSENSE_ENABLED
  66:HandleLowPower.c **** 		/* Put CapSense to Sleep*/
  67:HandleLowPower.c **** 		CapSense_Sleep();
  37              		.loc 1 67 0
  38 0006 FFF7FEFF 		bl	CapSense_Sleep
  68:HandleLowPower.c **** 		#endif
  69:HandleLowPower.c **** 		
  70:HandleLowPower.c **** 		/* Put BLESS into Deep Sleep and check the return status */
  71:HandleLowPower.c **** 		sleepMode = CyBle_EnterLPM(CYBLE_BLESS_DEEPSLEEP);
  39              		.loc 1 71 0
  40 000a FC1D     		add	r4, r7, #7
  41 000c 0320     		mov	r0, #3
  42 000e FFF7FEFF 		bl	CyBle_EnterLPM
  43 0012 031C     		mov	r3, r0
ARM GAS  C:\Users\Nakio\AppData\Local\Temp\ccuS0jaZ.s 			page 3


  44 0014 2370     		strb	r3, [r4]
  72:HandleLowPower.c **** 		
  73:HandleLowPower.c **** 		/* Disable global interrupt to prevent changes from any other interrupt ISR */
  74:HandleLowPower.c **** 		CyGlobalIntDisable;
  45              		.loc 1 74 0
  46              	@ 74 "HandleLowPower.c" 1
  47 0016 72B6     		CPSID   i
  48              	@ 0 "" 2
  75:HandleLowPower.c **** 	
  76:HandleLowPower.c **** 		/* Check the Status of BLESS */
  77:HandleLowPower.c **** 		blessState = CyBle_GetBleSsState();
  49              		.loc 1 77 0
  50              		.code	16
  51 0018 BC1D     		add	r4, r7, #6
  52 001a FFF7FEFF 		bl	CyBle_GetBleSsState
  53 001e 031C     		mov	r3, r0
  54 0020 2370     		strb	r3, [r4]
  78:HandleLowPower.c **** 
  79:HandleLowPower.c **** 		if(sleepMode == CYBLE_BLESS_DEEPSLEEP)
  55              		.loc 1 79 0
  56 0022 FB1D     		add	r3, r7, #7
  57 0024 1B78     		ldrb	r3, [r3]
  58 0026 032B     		cmp	r3, #3
  59 0028 1FD1     		bne	.L2
  80:HandleLowPower.c **** 		{
  81:HandleLowPower.c **** 		    /* If the ECO has started or the BLESS can go to Deep Sleep, then place CPU 
  82:HandleLowPower.c **** 			* to Deep Sleep */
  83:HandleLowPower.c **** 			if(blessState == CYBLE_BLESS_STATE_ECO_ON || blessState == CYBLE_BLESS_STATE_DEEPSLEEP)
  60              		.loc 1 83 0
  61 002a BB1D     		add	r3, r7, #6
  62 002c 1B78     		ldrb	r3, [r3]
  63 002e 042B     		cmp	r3, #4
  64 0030 03D0     		beq	.L3
  65              		.loc 1 83 0 is_stmt 0 discriminator 1
  66 0032 BB1D     		add	r3, r7, #6
  67 0034 1B78     		ldrb	r3, [r3]
  68 0036 062B     		cmp	r3, #6
  69 0038 1DD1     		bne	.L6
  70              	.L3:
  84:HandleLowPower.c **** 		    {
  85:HandleLowPower.c **** 				if(shut_down_led)
  71              		.loc 1 85 0 is_stmt 1
  72 003a 124B     		ldr	r3, .L7
  73 003c 1B78     		ldrb	r3, [r3]
  74 003e 002B     		cmp	r3, #0
  75 0040 0AD0     		beq	.L5
  86:HandleLowPower.c **** 				{
  87:HandleLowPower.c **** 					/* Put PrISM modules to sleep */
  88:HandleLowPower.c **** 					PrISM_1_Sleep();
  76              		.loc 1 88 0
  77 0042 FFF7FEFF 		bl	PrISM_1_Sleep
  89:HandleLowPower.c **** 					PrISM_2_Sleep();
  78              		.loc 1 89 0
  79 0046 FFF7FEFF 		bl	PrISM_2_Sleep
  90:HandleLowPower.c **** 					
  91:HandleLowPower.c **** 					/* Place CPU to Deep sleep only when the RGB PrISM module is not 
  92:HandleLowPower.c **** 					* active (indicated by flag 'shut_down_led'). 
ARM GAS  C:\Users\Nakio\AppData\Local\Temp\ccuS0jaZ.s 			page 4


  93:HandleLowPower.c **** 					* If RGB PrISM is active, then the CPU should only be placed in 
  94:HandleLowPower.c **** 					* Sleep to allow the PrISM to function and control the color 
  95:HandleLowPower.c **** 					* and Intensity */
  96:HandleLowPower.c **** 			        CySysPmDeepSleep();
  80              		.loc 1 96 0
  81 004a FFF7FEFF 		bl	CySysPmDeepSleep
  97:HandleLowPower.c **** 					
  98:HandleLowPower.c **** 					/* After system wakes up, wake up the PrISM modules*/
  99:HandleLowPower.c **** 					PrISM_1_Wakeup();
  82              		.loc 1 99 0
  83 004e FFF7FEFF 		bl	PrISM_1_Wakeup
 100:HandleLowPower.c **** 					PrISM_2_Wakeup();
  84              		.loc 1 100 0
  85 0052 FFF7FEFF 		bl	PrISM_2_Wakeup
  86 0056 0EE0     		b	.L6
  87              	.L5:
 101:HandleLowPower.c **** 				}
 102:HandleLowPower.c **** 				else
 103:HandleLowPower.c **** 				{
 104:HandleLowPower.c **** 					/* If the system is controlling RGB LED, then PrISM needs to be running. 
 105:HandleLowPower.c **** 					* Put CPU to sleep only */
 106:HandleLowPower.c **** 					CySysClkWriteImoFreq(IMO_FREQUENCY_3MHZ);
  88              		.loc 1 106 0
  89 0058 0320     		mov	r0, #3
  90 005a FFF7FEFF 		bl	CySysClkWriteImoFreq
 107:HandleLowPower.c **** 					CySysPmSleep();
  91              		.loc 1 107 0
  92 005e FFF7FEFF 		bl	CySysPmSleep
 108:HandleLowPower.c **** 					CySysClkWriteImoFreq(IMO_FREQUENCY_12MHZ);
  93              		.loc 1 108 0
  94 0062 0C20     		mov	r0, #12
  95 0064 FFF7FEFF 		bl	CySysClkWriteImoFreq
  96 0068 05E0     		b	.L6
  97              	.L2:
 109:HandleLowPower.c **** 
 110:HandleLowPower.c **** 				}
 111:HandleLowPower.c **** 		 	}
 112:HandleLowPower.c **** 		}
 113:HandleLowPower.c **** 		else
 114:HandleLowPower.c **** 		{
 115:HandleLowPower.c **** 		    if(blessState != CYBLE_BLESS_STATE_EVENT_CLOSE)
  98              		.loc 1 115 0
  99 006a BB1D     		add	r3, r7, #6
 100 006c 1B78     		ldrb	r3, [r3]
 101 006e 022B     		cmp	r3, #2
 102 0070 01D0     		beq	.L6
 116:HandleLowPower.c **** 		    {
 117:HandleLowPower.c **** 				/* If the BLESS hardware block cannot go to Deep Sleep and BLE Event has not 
 118:HandleLowPower.c **** 				* closed yet, then place CPU to Sleep */
 119:HandleLowPower.c **** 		        CySysPmSleep();
 103              		.loc 1 119 0
 104 0072 FFF7FEFF 		bl	CySysPmSleep
 105              	.L6:
 120:HandleLowPower.c **** 		    }
 121:HandleLowPower.c **** 		}
 122:HandleLowPower.c **** 		
 123:HandleLowPower.c **** 		/* Re-enable global interrupt mask after wakeup */
ARM GAS  C:\Users\Nakio\AppData\Local\Temp\ccuS0jaZ.s 			page 5


 124:HandleLowPower.c **** 		CyGlobalIntEnable;
 106              		.loc 1 124 0
 107              	@ 124 "HandleLowPower.c" 1
 108 0076 62B6     		CPSIE   i
 109              	@ 0 "" 2
 125:HandleLowPower.c **** 		
 126:HandleLowPower.c **** 		#ifdef CAPSENSE_ENABLED
 127:HandleLowPower.c **** 		/* Wakeup CapSense Block */
 128:HandleLowPower.c **** 		CapSense_Wakeup();
 110              		.loc 1 128 0
 111              		.code	16
 112 0078 FFF7FEFF 		bl	CapSense_Wakeup
 129:HandleLowPower.c **** 		#endif
 130:HandleLowPower.c **** 		
 131:HandleLowPower.c **** 	#endif
 132:HandleLowPower.c **** }
 113              		.loc 1 132 0
 114 007c BD46     		mov	sp, r7
 115 007e 03B0     		add	sp, sp, #12
 116              		@ sp needed
 117 0080 90BD     		pop	{r4, r7, pc}
 118              	.L8:
 119 0082 C046     		.align	2
 120              	.L7:
 121 0084 00000000 		.word	shut_down_led
 122              		.cfi_endproc
 123              	.LFE37:
 124              		.size	HandleLowPowerMode, .-HandleLowPowerMode
 125              		.section	.text.MyISR,"ax",%progbits
 126              		.align	2
 127              		.global	MyISR
 128              		.code	16
 129              		.thumb_func
 130              		.type	MyISR, %function
 131              	MyISR:
 132              	.LFB38:
 133:HandleLowPower.c **** 
 134:HandleLowPower.c **** /*******************************************************************************
 135:HandleLowPower.c **** * Function Name: MyISR
 136:HandleLowPower.c **** ********************************************************************************
 137:HandleLowPower.c **** * Summary:
 138:HandleLowPower.c **** *        ISR routine for isr_button. System enters here after CPU wakeup.
 139:HandleLowPower.c **** * Clears pending interrupt.
 140:HandleLowPower.c **** *
 141:HandleLowPower.c **** * Parameters:
 142:HandleLowPower.c **** *  void
 143:HandleLowPower.c **** *
 144:HandleLowPower.c **** * Return:
 145:HandleLowPower.c **** *  void
 146:HandleLowPower.c **** *
 147:HandleLowPower.c **** *******************************************************************************/
 148:HandleLowPower.c **** CY_ISR(MyISR)
 149:HandleLowPower.c **** {
 133              		.loc 1 149 0
 134              		.cfi_startproc
 135 0000 80B5     		push	{r7, lr}
 136              		.cfi_def_cfa_offset 8
ARM GAS  C:\Users\Nakio\AppData\Local\Temp\ccuS0jaZ.s 			page 6


 137              		.cfi_offset 7, -8
 138              		.cfi_offset 14, -4
 139 0002 00AF     		add	r7, sp, #0
 140              		.cfi_def_cfa_register 7
 150:HandleLowPower.c **** 	/* Clear Pending interrupts */
 151:HandleLowPower.c **** 	isr_button_ClearPending();
 141              		.loc 1 151 0
 142 0004 FFF7FEFF 		bl	isr_button_ClearPending
 152:HandleLowPower.c **** 	
 153:HandleLowPower.c **** 	User_Button_ClearInterrupt();
 143              		.loc 1 153 0
 144 0008 FFF7FEFF 		bl	User_Button_ClearInterrupt
 154:HandleLowPower.c **** }
 145              		.loc 1 154 0
 146 000c BD46     		mov	sp, r7
 147              		@ sp needed
 148 000e 80BD     		pop	{r7, pc}
 149              		.cfi_endproc
 150              	.LFE38:
 151              		.size	MyISR, .-MyISR
 152              		.text
 153              	.Letext0:
 154              		.file 2 "Generated_Source\\PSoC4/cytypes.h"
 155              		.file 3 "Generated_Source\\PSoC4/BLE_Stack.h"