ARM GAS  C:\Users\Nakio\AppData\Local\Temp\cc5CSGgM.s 			page 1


   1              		.cpu cortex-m0
   2              		.fpu softvfp
   3              		.eabi_attribute 20, 1
   4              		.eabi_attribute 21, 1
   5              		.eabi_attribute 23, 3
   6              		.eabi_attribute 24, 1
   7              		.eabi_attribute 25, 1
   8              		.eabi_attribute 26, 1
   9              		.eabi_attribute 30, 6
  10              		.eabi_attribute 34, 0
  11              		.eabi_attribute 18, 4
  12              		.code	16
  13              		.file	"main.c"
  14              		.text
  15              	.Ltext0:
  16              		.cfi_sections	.debug_frame
  17              		.global	initializeCapSenseBaseline
  18              		.data
  19              		.type	initializeCapSenseBaseline, %object
  20              		.size	initializeCapSenseBaseline, 1
  21              	initializeCapSenseBaseline:
  22 0000 01       		.byte	1
  23              		.section	.text.main,"ax",%progbits
  24              		.align	2
  25              		.global	main
  26              		.code	16
  27              		.thumb_func
  28              		.type	main, %function
  29              	main:
  30              	.LFB37:
  31              		.file 1 "main.c"
   1:main.c        **** /******************************************************************************
   2:main.c        **** * Project Name		: PSoC_4_BLE_CapSense_Slider_LED
   3:main.c        **** * File Name			: main.c
   4:main.c        **** * Version 			: 1.0
   5:main.c        **** * Device Used		: CY8C4248LQI-BL583
   6:main.c        **** * Software Used		: PSoC Creator 3.3 CP2
   7:main.c        **** * Compiler    		: ARM GCC 4.9.3, ARM MDK Generic
   8:main.c        **** * Related Hardware	: CY8CKIT-042-BLE-A Bluetooth Low Energy Pioneer Kit 
   9:main.c        **** * Owner             : ROIT
  10:main.c        **** *
  11:main.c        **** ********************************************************************************
  12:main.c        **** * Copyright (2015-16), Cypress Semiconductor Corporation. All Rights Reserved.
  13:main.c        **** ********************************************************************************
  14:main.c        **** * This software is owned by Cypress Semiconductor Corporation (Cypress)
  15:main.c        **** * and is protected by and subject to worldwide patent protection (United
  16:main.c        **** * States and foreign), United States copyright laws and international treaty
  17:main.c        **** * provisions. Cypress hereby grants to licensee a personal, non-exclusive,
  18:main.c        **** * non-transferable license to copy, use, modify, create derivative works of,
  19:main.c        **** * and compile the Cypress Source Code and derivative works for the sole
  20:main.c        **** * purpose of creating custom software in support of licensee product to be
  21:main.c        **** * used only in conjunction with a Cypress integrated circuit as specified in
  22:main.c        **** * the applicable agreement. Any reproduction, modification, translation,
  23:main.c        **** * compilation, or representation of this software except as specified above 
  24:main.c        **** * is prohibited without the express written permission of Cypress.
  25:main.c        **** *
  26:main.c        **** * Disclaimer: CYPRESS MAKES NO WARRANTY OF ANY KIND, EXPRESS OR IMPLIED, WITH 
ARM GAS  C:\Users\Nakio\AppData\Local\Temp\cc5CSGgM.s 			page 2


  27:main.c        **** * REGARD TO THIS MATERIAL, INCLUDING, BUT NOT LIMITED TO, THE IMPLIED 
  28:main.c        **** * WARRANTIES OF MERCHANTABILITY AND FITNESS FOR A PARTICULAR PURPOSE.
  29:main.c        **** * Cypress reserves the right to make changes without further notice to the 
  30:main.c        **** * materials described herein. Cypress does not assume any liability arising out 
  31:main.c        **** * of the application or use of any product or circuit described herein. Cypress 
  32:main.c        **** * does not authorize its products for use as critical components in life-support 
  33:main.c        **** * systems where a malfunction or failure may reasonably be expected to result in 
  34:main.c        **** * significant injury to the user. The inclusion of Cypress' product in a life-
  35:main.c        **** * support systems application implies that the manufacturer assumes all risk of 
  36:main.c        **** * such use and in doing so indemnifies Cypress against all charges. 
  37:main.c        **** *
  38:main.c        **** * Use of this Software may be limited by and subject to the applicable Cypress
  39:main.c        **** * software license agreement. 
  40:main.c        **** *******************************************************************************/
  41:main.c        **** 
  42:main.c        **** /******************************************************************************
  43:main.c        **** *                           THEORY OF OPERATION
  44:main.c        **** *******************************************************************************
  45:main.c        **** * This project will showcase the capability of PSoC 4 BLE to communicate 
  46:main.c        **** * bi-directionally with a BLE Central device over custom services. The CapSense 
  47:main.c        **** * custom service allows notifications to be sent to central device when 
  48:main.c        **** * notifications are enabled. On the other hand, the RGB LED custom service allows 
  49:main.c        **** * read and write of attributes under the RGB characteristics.
  50:main.c        **** * This project utilizes CapSense component to check finger position on slider 
  51:main.c        **** * and report this to central device over BLE. On the other hand, the control values 
  52:main.c        **** * sent to PSoC 4 BLE is converted to respective color and intensity on the onboard  
  53:main.c        **** * RGB LED. The BLE central device can be any BLE central device, including CySmart 
  54:main.c        **** * mobile app or CySmart PC tool. 
  55:main.c        **** * This project also inludes low power mode operation, idle for battery operated 
  56:main.c        **** * devices. The project utlizes Deep Sleep feature of both BLESS and CPU to remain 
  57:main.c        **** * in low power mode as much as possible, while maintaining the BLE connection and  
  58:main.c        **** * data transfer. This allows the device to run on coin cell battery for long time.
  59:main.c        **** *
  60:main.c        **** * Note:
  61:main.c        **** * The programming pins have been configured as GPIO, and not SWD. This is because 
  62:main.c        **** * when programming pins are configured for SWD, then the silicon consumes extra
  63:main.c        **** * power through the pins. To prevent the leakage of power, the pins have been set 
  64:main.c        **** * to GPIO. With this setting, the kit can still be acquired by PSoC Creator or
  65:main.c        **** * PSoC Programmer software tools for programming, but the project cannot be 
  66:main.c        **** * externally debugged. To re-enable debugging, go to PSoC_4_BLE_CapSense_Slider_LED.cydwr 
  67:main.c        **** * from Workspace Explorer, go to Systems tab, and set the Debug Select option to 'SWD'.
  68:main.c        **** * Build and program this project to enable external Debugging.
  69:main.c        **** *
  70:main.c        **** * Refer to BLE Pioneer Kit user guide for details.
  71:main.c        **** *******************************************************************************
  72:main.c        **** * Hardware connection required for testing -
  73:main.c        **** * Slider pins 	- P2[1]-P2[5] (hard-wired on the BLE Pioneer kit)
  74:main.c        **** * Cmod pin		- P4[0] (hard-wired on the PSoC 4 BLE module)
  75:main.c        **** * R-G-B LED 	- P2[6], P3[6] and P3[7] (hard-wired on the BLE Pioneer kit)
  76:main.c        **** * User Switch	- P2[7] (hard-wired on the BLE Pioneer kit)
  77:main.c        **** ******************************************************************************/
  78:main.c        **** #include <main.h>
  79:main.c        **** 
  80:main.c        **** /* This flag is used by application to know whether a Central 
  81:main.c        **** * device has been connected. This is updated in BLE event callback 
  82:main.c        **** * function*/
  83:main.c        **** extern uint8 deviceConnected;
ARM GAS  C:\Users\Nakio\AppData\Local\Temp\cc5CSGgM.s 			page 3


  84:main.c        **** 
  85:main.c        **** /*This flag is set when the Central device writes to CCCD of the 
  86:main.c        **** * CapSense slider Characteristic to enable notifications */
  87:main.c        **** extern uint8 sendCapSenseSliderNotifications;
  88:main.c        **** 
  89:main.c        **** /* 'restartAdvertisement' flag is used to restart advertisement */
  90:main.c        **** extern uint8 restartAdvertisement;
  91:main.c        **** 
  92:main.c        **** /* 'initializeCapSenseBaseline' flag is used to call the function once that initializes 
  93:main.c        **** * all CapSense baseline. The baseline is initialized when the first advertisement 
  94:main.c        **** * is started. This is done so that any external disturbance while powering the kit does 
  95:main.c        **** * not infliuence the baseline value, that may cause wrong readings. */
  96:main.c        **** uint8 initializeCapSenseBaseline = TRUE;
  97:main.c        **** 
  98:main.c        **** /*******************************************************************************
  99:main.c        **** * Function Name: main
 100:main.c        **** ********************************************************************************
 101:main.c        **** * Summary:
 102:main.c        **** *        System entrance point. This calls the initializing function and
 103:main.c        **** * continuously process BLE and CapSense events.
 104:main.c        **** *
 105:main.c        **** * Parameters:
 106:main.c        **** *  void
 107:main.c        **** *
 108:main.c        **** * Return:
 109:main.c        **** *  int
 110:main.c        **** *
 111:main.c        **** 
 112:main.c        **** *******************************************************************************/
 113:main.c        **** int main()
 114:main.c        **** {
  32              		.loc 1 114 0
  33              		.cfi_startproc
  34 0000 80B5     		push	{r7, lr}
  35              		.cfi_def_cfa_offset 8
  36              		.cfi_offset 7, -8
  37              		.cfi_offset 14, -4
  38 0002 00AF     		add	r7, sp, #0
  39              		.cfi_def_cfa_register 7
 115:main.c        **** 	/* This function will initialize the system resources such as BLE and CapSense */
 116:main.c        ****     InitializeSystem();
  40              		.loc 1 116 0
  41 0004 FFF7FEFF 		bl	InitializeSystem
  42              	.L5:
 117:main.c        **** 	
 118:main.c        ****     for(;;)
 119:main.c        ****     {
 120:main.c        ****         /*Process event callback to handle BLE events. The events generated and 
 121:main.c        **** 		* used for this application are inside the 'CustomEventHandler' routine*/
 122:main.c        ****         CyBle_ProcessEvents();
  43              		.loc 1 122 0
  44 0008 FFF7FEFF 		bl	CyBle_ProcessEvents
 123:main.c        **** 		
 124:main.c        **** 		/* Updated LED for status during BLE active states */
 125:main.c        **** 		HandleStatusLED();
  45              		.loc 1 125 0
  46 000c FFF7FEFF 		bl	HandleStatusLED
ARM GAS  C:\Users\Nakio\AppData\Local\Temp\cc5CSGgM.s 			page 4


 126:main.c        **** 		
 127:main.c        **** 		if(TRUE == deviceConnected)
  47              		.loc 1 127 0
  48 0010 124B     		ldr	r3, .L6
  49 0012 1B78     		ldrb	r3, [r3]
  50 0014 012B     		cmp	r3, #1
  51 0016 0CD1     		bne	.L2
 128:main.c        **** 		{
 129:main.c        **** 			/* After the connection, send new connection parameter to the Client device 
 130:main.c        **** 			* to run the BLE communication on desired interval. This affects the data rate 
 131:main.c        **** 			* and power consumption. High connection interval will have lower data rate but 
 132:main.c        **** 			* lower power consumption. Low connection interval will have higher data rate at
 133:main.c        **** 			* expense of higher power. This function is called only once per connection. */
 134:main.c        **** 			UpdateConnectionParam();
  52              		.loc 1 134 0
  53 0018 FFF7FEFF 		bl	UpdateConnectionParam
 135:main.c        **** 			
 136:main.c        **** 			/* Send CapSense Slider data when respective notification is enabled */
 137:main.c        **** 			if(sendCapSenseSliderNotifications == CCCD_NTF_BIT_MASK)
  54              		.loc 1 137 0
  55 001c 104B     		ldr	r3, .L6+4
  56 001e 1B78     		ldrb	r3, [r3]
  57 0020 012B     		cmp	r3, #1
  58 0022 06D1     		bne	.L2
 138:main.c        **** 			{
 139:main.c        **** 				if(CYBLE_BLESS_STATE_ECO_STABLE ==CyBle_GetBleSsState())
  59              		.loc 1 139 0
  60 0024 FFF7FEFF 		bl	CyBle_GetBleSsState
  61 0028 031E     		sub	r3, r0, #0
  62 002a 052B     		cmp	r3, #5
  63 002c 01D1     		bne	.L2
 140:main.c        **** 				{
 141:main.c        **** 					/* Check for CapSense slider swipe and send data accordingly */
 142:main.c        **** 					HandleCapSenseSlider();
  64              		.loc 1 142 0
  65 002e FFF7FEFF 		bl	HandleCapSenseSlider
  66              	.L2:
 143:main.c        **** 				}
 144:main.c        **** 			}
 145:main.c        **** 		}
 146:main.c        **** 		
 147:main.c        **** 		#ifdef ENABLE_LOW_POWER_MODE
 148:main.c        **** 			/* Put system to Deep sleep, including BLESS, and wakeup on interrupt. 
 149:main.c        **** 			* The source of the interrupt can be either BLESS Link Layer in case of 
 150:main.c        **** 			* BLE advertisement and connection or by User Button press during BLE 
 151:main.c        **** 			* disconnection */
 152:main.c        **** 			HandleLowPowerMode();
 153:main.c        **** 		#endif
 154:main.c        **** 		
 155:main.c        **** 		if(restartAdvertisement)
  67              		.loc 1 155 0
  68 0032 0C4B     		ldr	r3, .L6+8
  69 0034 1B78     		ldrb	r3, [r3]
  70 0036 002B     		cmp	r3, #0
  71 0038 0ED0     		beq	.L3
 156:main.c        **** 		{
 157:main.c        **** 			/* Reset 'restartAdvertisement' flag*/
ARM GAS  C:\Users\Nakio\AppData\Local\Temp\cc5CSGgM.s 			page 5


 158:main.c        **** 			restartAdvertisement = FALSE;
  72              		.loc 1 158 0
  73 003a 0A4B     		ldr	r3, .L6+8
  74 003c 0022     		mov	r2, #0
  75 003e 1A70     		strb	r2, [r3]
 159:main.c        **** 			
 160:main.c        **** 			/* If CapSense Initialize Baseline API has not been called yet, call the
 161:main.c        **** 			* API and reset the flag. */
 162:main.c        **** 			if(initializeCapSenseBaseline)
  76              		.loc 1 162 0
  77 0040 094B     		ldr	r3, .L6+12
  78 0042 1B78     		ldrb	r3, [r3]
  79 0044 002B     		cmp	r3, #0
  80 0046 04D0     		beq	.L4
 163:main.c        **** 			{
 164:main.c        **** 				/* Reset 'initializeCapSenseBaseline' flag*/
 165:main.c        **** 				initializeCapSenseBaseline = FALSE;
  81              		.loc 1 165 0
  82 0048 074B     		ldr	r3, .L6+12
  83 004a 0022     		mov	r2, #0
  84 004c 1A70     		strb	r2, [r3]
 166:main.c        **** 				
 167:main.c        **** 				/* Initialize all CapSense Baseline */
 168:main.c        **** 				CapSense_InitializeAllBaselines();
  85              		.loc 1 168 0
  86 004e FFF7FEFF 		bl	CapSense_InitializeAllBaselines
  87              	.L4:
 169:main.c        **** 			}
 170:main.c        **** 
 171:main.c        **** 			/* Start Advertisement and enter Discoverable mode*/
 172:main.c        **** 			CyBle_GappStartAdvertisement(CYBLE_ADVERTISING_FAST);	
  88              		.loc 1 172 0
  89 0052 0020     		mov	r0, #0
  90 0054 FFF7FEFF 		bl	CyBle_GappStartAdvertisement
  91              	.L3:
 173:main.c        **** 		}
 174:main.c        ****     }	/* End of for(;;) */
  92              		.loc 1 174 0
  93 0058 D6E7     		b	.L5
  94              	.L7:
  95 005a C046     		.align	2
  96              	.L6:
  97 005c 00000000 		.word	deviceConnected
  98 0060 00000000 		.word	sendCapSenseSliderNotifications
  99 0064 00000000 		.word	restartAdvertisement
 100 0068 00000000 		.word	initializeCapSenseBaseline
 101              		.cfi_endproc
 102              	.LFE37:
 103              		.size	main, .-main
 104              		.section	.text.InitializeSystem,"ax",%progbits
 105              		.align	2
 106              		.global	InitializeSystem
 107              		.code	16
 108              		.thumb_func
 109              		.type	InitializeSystem, %function
 110              	InitializeSystem:
 111              	.LFB38:
ARM GAS  C:\Users\Nakio\AppData\Local\Temp\cc5CSGgM.s 			page 6


 175:main.c        **** }
 176:main.c        **** 
 177:main.c        **** /*******************************************************************************
 178:main.c        **** * Function Name: InitializeSystem
 179:main.c        **** ********************************************************************************
 180:main.c        **** * Summary:
 181:main.c        **** *        Start the components and initialize system 
 182:main.c        **** *
 183:main.c        **** * Parameters:
 184:main.c        **** *  void
 185:main.c        **** *
 186:main.c        **** * Return:
 187:main.c        **** *  void
 188:main.c        **** *
 189:main.c        **** *******************************************************************************/
 190:main.c        **** void InitializeSystem(void)
 191:main.c        **** {
 112              		.loc 1 191 0
 113              		.cfi_startproc
 114 0000 80B5     		push	{r7, lr}
 115              		.cfi_def_cfa_offset 8
 116              		.cfi_offset 7, -8
 117              		.cfi_offset 14, -4
 118 0002 00AF     		add	r7, sp, #0
 119              		.cfi_def_cfa_register 7
 192:main.c        **** 	/* Enable global interrupt mask */
 193:main.c        **** 	CyGlobalIntEnable; 
 120              		.loc 1 193 0
 121              	@ 193 "main.c" 1
 122 0004 62B6     		CPSIE   i
 123              	@ 0 "" 2
 194:main.c        **** 			
 195:main.c        **** 	/* Start BLE component and register the CustomEventHandler function. This 
 196:main.c        **** 	* function exposes the events from BLE component for application use */
 197:main.c        ****     CyBle_Start(CustomEventHandler);
 124              		.loc 1 197 0
 125              		.code	16
 126 0006 144B     		ldr	r3, .L9
 127 0008 181C     		mov	r0, r3
 128 000a FFF7FEFF 		bl	CyBle_Start
 198:main.c        **** 	
 199:main.c        **** 	/* Start the PrISM component for LED control*/
 200:main.c        ****     PrISM_1_Start();
 129              		.loc 1 200 0
 130 000e FFF7FEFF 		bl	PrISM_1_Start
 201:main.c        ****     PrISM_2_Start();
 131              		.loc 1 201 0
 132 0012 FFF7FEFF 		bl	PrISM_2_Start
 202:main.c        **** 	
 203:main.c        **** 	/* The RGB LED on BLE Pioneer kit are active low. Drive HIGH on 
 204:main.c        **** 		pin for OFF and drive LOW on pin for ON*/
 205:main.c        **** 	PrISM_1_WritePulse0(RGB_LED_OFF);
 133              		.loc 1 205 0
 134 0016 FF20     		mov	r0, #255
 135 0018 FFF7FEFF 		bl	PrISM_1_WritePulse0
 206:main.c        **** 	PrISM_1_WritePulse1(RGB_LED_OFF);
 136              		.loc 1 206 0
ARM GAS  C:\Users\Nakio\AppData\Local\Temp\cc5CSGgM.s 			page 7


 137 001c FF20     		mov	r0, #255
 138 001e FFF7FEFF 		bl	PrISM_1_WritePulse1
 207:main.c        **** 	PrISM_2_WritePulse0(RGB_LED_OFF);
 139              		.loc 1 207 0
 140 0022 FF20     		mov	r0, #255
 141 0024 FFF7FEFF 		bl	PrISM_2_WritePulse0
 208:main.c        **** 	
 209:main.c        **** 	/* Set Drive mode of output pins from HiZ to Strong */
 210:main.c        **** 	RED_SetDriveMode(RED_DM_STRONG);
 142              		.loc 1 210 0
 143 0028 0620     		mov	r0, #6
 144 002a FFF7FEFF 		bl	RED_SetDriveMode
 211:main.c        **** 	GREEN_SetDriveMode(GREEN_DM_STRONG);
 145              		.loc 1 211 0
 146 002e 0620     		mov	r0, #6
 147 0030 FFF7FEFF 		bl	GREEN_SetDriveMode
 212:main.c        **** 	BLUE_SetDriveMode(BLUE_DM_STRONG);
 148              		.loc 1 212 0
 149 0034 0620     		mov	r0, #6
 150 0036 FFF7FEFF 		bl	BLUE_SetDriveMode
 213:main.c        **** 	
 214:main.c        **** 	/* Start the Button ISR to allow wakeup from sleep */
 215:main.c        **** 	isr_button_StartEx(MyISR);
 151              		.loc 1 215 0
 152 003a 084B     		ldr	r3, .L9+4
 153 003c 181C     		mov	r0, r3
 154 003e FFF7FEFF 		bl	isr_button_StartEx
 216:main.c        **** 	
 217:main.c        **** 	#ifdef CAPSENSE_ENABLED
 218:main.c        **** 	/*Initialize CapSense component and initialize baselines*/
 219:main.c        **** 	CapSense_Start();
 155              		.loc 1 219 0
 156 0042 FFF7FEFF 		bl	CapSense_Start
 220:main.c        **** 	CapSense_InitializeAllBaselines();
 157              		.loc 1 220 0
 158 0046 FFF7FEFF 		bl	CapSense_InitializeAllBaselines
 221:main.c        **** 	#endif
 222:main.c        **** 	
 223:main.c        **** 	/* Set the Watchdog Interrupt vector to the address of Interrupt routine 
 224:main.c        **** 	* WDT_INT_Handler. This routine counts the 3 seconds for LED ON state during
 225:main.c        **** 	* connection. */
 226:main.c        **** 	CyIntSetVector(WATCHDOG_INT_VEC_NUM, &WDT_INT_Handler);
 159              		.loc 1 226 0
 160 004a 054B     		ldr	r3, .L9+8
 161 004c 0820     		mov	r0, #8
 162 004e 191C     		mov	r1, r3
 163 0050 FFF7FEFF 		bl	CyIntSetVector
 227:main.c        **** 
 228:main.c        **** }
 164              		.loc 1 228 0
 165 0054 BD46     		mov	sp, r7
 166              		@ sp needed
 167 0056 80BD     		pop	{r7, pc}
 168              	.L10:
 169              		.align	2
 170              	.L9:
 171 0058 00000000 		.word	CustomEventHandler
ARM GAS  C:\Users\Nakio\AppData\Local\Temp\cc5CSGgM.s 			page 8


 172 005c 00000000 		.word	MyISR
 173 0060 00000000 		.word	WDT_INT_Handler
 174              		.cfi_endproc
 175              	.LFE38:
 176              		.size	InitializeSystem, .-InitializeSystem
 177              		.section	.text.HandleCapSenseSlider,"ax",%progbits
 178              		.align	2
 179              		.global	HandleCapSenseSlider
 180              		.code	16
 181              		.thumb_func
 182              		.type	HandleCapSenseSlider, %function
 183              	HandleCapSenseSlider:
 184              	.LFB39:
 229:main.c        **** 
 230:main.c        **** /*******************************************************************************
 231:main.c        **** * Function Name: HandleCapSenseSlider
 232:main.c        **** ********************************************************************************
 233:main.c        **** * Summary:
 234:main.c        **** *        This function scans for finger position on CapSense slider, and if the  
 235:main.c        **** * position is different, triggers separate routine for BLE notification
 236:main.c        **** *
 237:main.c        **** * Parameters:
 238:main.c        **** *  void
 239:main.c        **** *
 240:main.c        **** * Return:
 241:main.c        **** *  void
 242:main.c        **** *
 243:main.c        **** *******************************************************************************/
 244:main.c        **** void HandleCapSenseSlider(void)
 245:main.c        **** {
 185              		.loc 1 245 0
 186              		.cfi_startproc
 187 0000 90B5     		push	{r4, r7, lr}
 188              		.cfi_def_cfa_offset 12
 189              		.cfi_offset 4, -12
 190              		.cfi_offset 7, -8
 191              		.cfi_offset 14, -4
 192 0002 83B0     		sub	sp, sp, #12
 193              		.cfi_def_cfa_offset 24
 194 0004 00AF     		add	r7, sp, #0
 195              		.cfi_def_cfa_register 7
 246:main.c        **** 	#ifdef CAPSENSE_ENABLED
 247:main.c        **** 	/* Last read CapSense slider position value */
 248:main.c        **** 	static uint16 lastPosition;	
 249:main.c        **** 
 250:main.c        **** 	/* Present slider position read by CapSense */
 251:main.c        **** 	uint16 sliderPosition;
 252:main.c        **** 		
 253:main.c        **** 	/* Scan the slider widget */
 254:main.c        **** 	CapSense_ScanWidget(CapSense_LINEARSLIDER0__LS);
 196              		.loc 1 254 0
 197 0006 0020     		mov	r0, #0
 198 0008 FFF7FEFF 		bl	CapSense_ScanWidget
 255:main.c        **** 	
 256:main.c        **** 	/* Wait for CapSense scanning to be complete. This could take about 5 ms */
 257:main.c        **** 	while(CapSense_IsBusy())
 199              		.loc 1 257 0
ARM GAS  C:\Users\Nakio\AppData\Local\Temp\cc5CSGgM.s 			page 9


 200 000c C046     		mov	r8, r8
 201              	.L12:
 202              		.loc 1 257 0 is_stmt 0 discriminator 1
 203 000e FFF7FEFF 		bl	CapSense_IsBusy
 204 0012 031E     		sub	r3, r0, #0
 205 0014 FBD1     		bne	.L12
 258:main.c        **** 	{
 259:main.c        **** 		#ifdef ENABLE_LOW_POWER_MODE
 260:main.c        **** 		/* Put CPU to Sleep while CapSense scanning is executing */
 261:main.c        **** 		CySysPmSleep();
 262:main.c        **** 		#endif
 263:main.c        **** 	}
 264:main.c        **** 	
 265:main.c        **** 	/* Update CapSense baseline for next reading*/
 266:main.c        **** 	CapSense_UpdateEnabledBaselines();
 206              		.loc 1 266 0 is_stmt 1
 207 0016 FFF7FEFF 		bl	CapSense_UpdateEnabledBaselines
 267:main.c        **** 	
 268:main.c        **** 	/* Read the finger position on the slider */
 269:main.c        **** 	sliderPosition = CapSense_GetCentroidPos(CapSense_LINEARSLIDER0__LS);	
 208              		.loc 1 269 0
 209 001a BC1D     		add	r4, r7, #6
 210 001c 0020     		mov	r0, #0
 211 001e FFF7FEFF 		bl	CapSense_GetCentroidPos
 212 0022 031C     		mov	r3, r0
 213 0024 2380     		strh	r3, [r4]
 270:main.c        **** 
 271:main.c        **** 	/* If finger position on the slider is changed then send data as BLE notifications */
 272:main.c        **** 	if(sliderPosition != lastPosition)
 214              		.loc 1 272 0
 215 0026 0E4B     		ldr	r3, .L16
 216 0028 1B88     		ldrh	r3, [r3]
 217 002a BA1D     		add	r2, r7, #6
 218 002c 1288     		ldrh	r2, [r2]
 219 002e 9A42     		cmp	r2, r3
 220 0030 12D0     		beq	.L11
 273:main.c        **** 	{
 274:main.c        **** 		/*If finger is detected on the slider*/
 275:main.c        **** 		if((sliderPosition == NO_FINGER) || (sliderPosition <= SLIDER_MAX_VALUE))
 221              		.loc 1 275 0
 222 0032 BB1D     		add	r3, r7, #6
 223 0034 1B88     		ldrh	r3, [r3]
 224 0036 0B4A     		ldr	r2, .L16+4
 225 0038 9342     		cmp	r3, r2
 226 003a 03D0     		beq	.L14
 227              		.loc 1 275 0 is_stmt 0 discriminator 1
 228 003c BB1D     		add	r3, r7, #6
 229 003e 1B88     		ldrh	r3, [r3]
 230 0040 642B     		cmp	r3, #100
 231 0042 05D8     		bhi	.L15
 232              	.L14:
 276:main.c        **** 		{
 277:main.c        **** 			/* Send data over Slider Notification */
 278:main.c        **** 			SendDataOverCapSenseNotification((uint8)sliderPosition);
 233              		.loc 1 278 0 is_stmt 1
 234 0044 BB1D     		add	r3, r7, #6
 235 0046 1B88     		ldrh	r3, [r3]
ARM GAS  C:\Users\Nakio\AppData\Local\Temp\cc5CSGgM.s 			page 10


 236 0048 DBB2     		uxtb	r3, r3
 237 004a 181C     		mov	r0, r3
 238 004c FFF7FEFF 		bl	SendDataOverCapSenseNotification
 239              	.L15:
 279:main.c        **** 
 280:main.c        **** 		}	/* if(sliderPosition != NO_FINGER) */
 281:main.c        **** 		
 282:main.c        **** 		/* Update local static variable with present finger position on slider*/
 283:main.c        **** 		lastPosition = sliderPosition;
 240              		.loc 1 283 0
 241 0050 034B     		ldr	r3, .L16
 242 0052 BA1D     		add	r2, r7, #6
 243 0054 1288     		ldrh	r2, [r2]
 244 0056 1A80     		strh	r2, [r3]
 245              	.L11:
 284:main.c        **** 		
 285:main.c        **** 	}	/* if(sliderPosition != lastPosition) */
 286:main.c        **** 	#endif
 287:main.c        **** }
 246              		.loc 1 287 0
 247 0058 BD46     		mov	sp, r7
 248 005a 03B0     		add	sp, sp, #12
 249              		@ sp needed
 250 005c 90BD     		pop	{r4, r7, pc}
 251              	.L17:
 252 005e C046     		.align	2
 253              	.L16:
 254 0060 00000000 		.word	lastPosition.7224
 255 0064 FFFF0000 		.word	65535
 256              		.cfi_endproc
 257              	.LFE39:
 258              		.size	HandleCapSenseSlider, .-HandleCapSenseSlider
 259              		.bss
 260              		.align	1
 261              	lastPosition.7224:
 262 0000 0000     		.space	2
 263              		.text
 264              	.Letext0:
 265              		.file 2 "Generated_Source\\PSoC4/cytypes.h"
 266              		.file 3 "Generated_Source\\PSoC4/BLE_Stack.h"